 Cinematica_JA_reducido_sfun

 Timestamp is 4fc563ca (Tue May 29 19:03:22 2012)

 Preferred load address is 10000000

 Start         Length     Name                   Class
 0001:00000000 00040864H .text                   CODE
 0002:00000000 0000025cH .idata$5                DATA
 0002:0000025c 00000004H .CRT$XCA                DATA
 0002:00000260 00000004H .CRT$XCZ                DATA
 0002:00000264 00000004H .CRT$XIA                DATA
 0002:00000268 00000004H .CRT$XIAA               DATA
 0002:0000026c 00000004H .CRT$XIC                DATA
 0002:00000270 00000004H .CRT$XIZ                DATA
 0002:00000278 00004690H .rdata                  DATA
 0002:00004910 00000004H .rdata$sxdata           DATA
 0002:00004914 00000004H .rtc$IAA                DATA
 0002:00004918 00000004H .rtc$IZZ                DATA
 0002:0000491c 00000004H .rtc$TAA                DATA
 0002:00004920 00000004H .rtc$TZZ                DATA
 0002:00004928 00000064H .xdata$x                DATA
 0002:0000498c 000000b4H .idata$2                DATA
 0002:00004a40 00000014H .idata$3                DATA
 0002:00004a54 0000025cH .idata$4                DATA
 0002:00004cb0 00000ad2H .idata$6                DATA
 0002:00005790 00000061H .edata                  DATA
 0003:00000000 00006390H .data                   DATA
 0003:000063a0 000023c8H .bss                    DATA

  Address         Publics by Value              Rva+Base       Lib:Object

 0000:00000000       __except_list              00000000     <absolute>
 0000:00000001       ___safe_se_handler_count   00000001     <absolute>
 0000:00009876       __fltused                  00009876     <absolute>
 0000:00009876       __ldused                   00009876     <absolute>
 0000:00000000       ___ImageBase               10000000     <linker-defined>
 0001:00000000       _sf_c1_Cinematica_JA_reducido_get_eml_resolved_functions_info 10001000 f   c1_Cinematica_JA_reducido.obj
 0001:00000050       _sf_c1_Cinematica_JA_reducido_get_check_sum 10001050 f   c1_Cinematica_JA_reducido.obj
 0001:000000b0       _sf_c1_Cinematica_JA_reducido_get_autoinheritance_info 100010b0 f   c1_Cinematica_JA_reducido.obj
 0001:00000410       _sf_internal_get_sim_state_c1_Cinematica_JA_reducido 10001410 f   c1_Cinematica_JA_reducido.obj
 0001:000006d0       _sf_internal_set_sim_state_c1_Cinematica_JA_reducido 100016d0 f   c1_Cinematica_JA_reducido.obj
 0001:00000a50       _c1_Cinematica_JA_reducido_method_dispatcher 10001a50 f   c1_Cinematica_JA_reducido.obj
 0001:00001f00       _sf_c2_Cinematica_JA_reducido_get_eml_resolved_functions_info 10002f00 f   c2_Cinematica_JA_reducido.obj
 0001:00003b10       _sf_c2_Cinematica_JA_reducido_get_check_sum 10004b10 f   c2_Cinematica_JA_reducido.obj
 0001:00003b70       _sf_c2_Cinematica_JA_reducido_get_autoinheritance_info 10004b70 f   c2_Cinematica_JA_reducido.obj
 0001:000040d0       _sf_internal_get_sim_state_c2_Cinematica_JA_reducido 100050d0 f   c2_Cinematica_JA_reducido.obj
 0001:00004410       _sf_internal_set_sim_state_c2_Cinematica_JA_reducido 10005410 f   c2_Cinematica_JA_reducido.obj
 0001:000047f0       _c2_Cinematica_JA_reducido_method_dispatcher 100057f0 f   c2_Cinematica_JA_reducido.obj
 0001:0000f1d0       _sf_c3_Cinematica_JA_reducido_get_eml_resolved_functions_info 100101d0 f   c3_Cinematica_JA_reducido.obj
 0001:0000f220       _sf_c3_Cinematica_JA_reducido_get_check_sum 10010220 f   c3_Cinematica_JA_reducido.obj
 0001:0000f280       _sf_c3_Cinematica_JA_reducido_get_autoinheritance_info 10010280 f   c3_Cinematica_JA_reducido.obj
 0001:0000f8f0       _sf_internal_get_sim_state_c3_Cinematica_JA_reducido 100108f0 f   c3_Cinematica_JA_reducido.obj
 0001:0000fcb0       _sf_internal_set_sim_state_c3_Cinematica_JA_reducido 10010cb0 f   c3_Cinematica_JA_reducido.obj
 0001:00010080       _c3_Cinematica_JA_reducido_method_dispatcher 10011080 f   c3_Cinematica_JA_reducido.obj
 0001:00011460       _sf_c4_Cinematica_JA_reducido_get_eml_resolved_functions_info 10012460 f   c4_Cinematica_JA_reducido.obj
 0001:000114b0       _sf_c4_Cinematica_JA_reducido_get_check_sum 100124b0 f   c4_Cinematica_JA_reducido.obj
 0001:00011510       _sf_c4_Cinematica_JA_reducido_get_autoinheritance_info 10012510 f   c4_Cinematica_JA_reducido.obj
 0001:00011870       _sf_internal_get_sim_state_c4_Cinematica_JA_reducido 10012870 f   c4_Cinematica_JA_reducido.obj
 0001:00011b30       _sf_internal_set_sim_state_c4_Cinematica_JA_reducido 10012b30 f   c4_Cinematica_JA_reducido.obj
 0001:00011eb0       _c4_Cinematica_JA_reducido_method_dispatcher 10012eb0 f   c4_Cinematica_JA_reducido.obj
 0001:00012ff0       _sf_c5_Cinematica_JA_reducido_get_eml_resolved_functions_info 10013ff0 f   c5_Cinematica_JA_reducido.obj
 0001:00013040       _sf_c5_Cinematica_JA_reducido_get_check_sum 10014040 f   c5_Cinematica_JA_reducido.obj
 0001:000130a0       _sf_c5_Cinematica_JA_reducido_get_autoinheritance_info 100140a0 f   c5_Cinematica_JA_reducido.obj
 0001:00013400       _sf_internal_get_sim_state_c5_Cinematica_JA_reducido 10014400 f   c5_Cinematica_JA_reducido.obj
 0001:000136c0       _sf_internal_set_sim_state_c5_Cinematica_JA_reducido 100146c0 f   c5_Cinematica_JA_reducido.obj
 0001:00013a40       _c5_Cinematica_JA_reducido_method_dispatcher 10014a40 f   c5_Cinematica_JA_reducido.obj
 0001:00014b80       _sf_c6_Cinematica_JA_reducido_get_eml_resolved_functions_info 10015b80 f   c6_Cinematica_JA_reducido.obj
 0001:00014bd0       _sf_c6_Cinematica_JA_reducido_get_check_sum 10015bd0 f   c6_Cinematica_JA_reducido.obj
 0001:00014c30       _sf_c6_Cinematica_JA_reducido_get_autoinheritance_info 10015c30 f   c6_Cinematica_JA_reducido.obj
 0001:00014f90       _sf_internal_get_sim_state_c6_Cinematica_JA_reducido 10015f90 f   c6_Cinematica_JA_reducido.obj
 0001:00015250       _sf_internal_set_sim_state_c6_Cinematica_JA_reducido 10016250 f   c6_Cinematica_JA_reducido.obj
 0001:000155d0       _c6_Cinematica_JA_reducido_method_dispatcher 100165d0 f   c6_Cinematica_JA_reducido.obj
 0001:00016710       _sf_c7_Cinematica_JA_reducido_get_eml_resolved_functions_info 10017710 f   c7_Cinematica_JA_reducido.obj
 0001:00016760       _sf_c7_Cinematica_JA_reducido_get_check_sum 10017760 f   c7_Cinematica_JA_reducido.obj
 0001:000167c0       _sf_c7_Cinematica_JA_reducido_get_autoinheritance_info 100177c0 f   c7_Cinematica_JA_reducido.obj
 0001:00016b20       _sf_internal_get_sim_state_c7_Cinematica_JA_reducido 10017b20 f   c7_Cinematica_JA_reducido.obj
 0001:00016de0       _sf_internal_set_sim_state_c7_Cinematica_JA_reducido 10017de0 f   c7_Cinematica_JA_reducido.obj
 0001:00017160       _c7_Cinematica_JA_reducido_method_dispatcher 10018160 f   c7_Cinematica_JA_reducido.obj
 0001:000182a0       _sf_process_check_sum_call 100192a0 f   Cinematica_JA_reducido_sfun_registry.obj
 0001:000182d0       _sf_process_autoinheritance_call 100192d0 f   Cinematica_JA_reducido_sfun_registry.obj
 0001:000183f0       _sf_process_get_eml_resolved_functions_info_call 100193f0 f   Cinematica_JA_reducido_sfun_registry.obj
 0001:00018510       _sf_mex_unlock_call        10019510 f   Cinematica_JA_reducido_sfun_registry.obj
 0001:000185a0       _sf_machine_global_initializer_called 100195a0 f   Cinematica_JA_reducido_sfun_registry.obj
 0001:000185c0       _sf_machine_global_method_dispatcher 100195c0 f   Cinematica_JA_reducido_sfun_registry.obj
 0001:00018600       _sf_machine_global_terminator 10019600 f   Cinematica_JA_reducido_sfun_registry.obj
 0001:00018630       _sf_register_machine_exported_symbols 10019630 f   Cinematica_JA_reducido_sfun_registry.obj
 0001:00018650       _callCustomFcn             10019650 f   Cinematica_JA_reducido_sfun_registry.obj
 0001:00018660       _sf_machine_global_initializer 10019660 f   Cinematica_JA_reducido_sfun_registry.obj
 0001:000186c0       __ssSetStateAbsTol         100196c0 f   Cinematica_JA_reducido_sfun_registry.obj
 0001:00018760       __ssGetAbsTol              10019760 f   Cinematica_JA_reducido_sfun_registry.obj
 0001:000187b0       __ssSetInputPortMatrixDimensions 100197b0 f   Cinematica_JA_reducido_sfun_registry.obj
 0001:00018860       __ssSetOutputPortMatrixDimensions 10019860 f   Cinematica_JA_reducido_sfun_registry.obj
 0001:00018910       __ssSetInputPortVectorDimension 10019910 f   Cinematica_JA_reducido_sfun_registry.obj
 0001:00018990       __ssSetOutputPortVectorDimension 10019990 f   Cinematica_JA_reducido_sfun_registry.obj
 0001:00018a10       _ssIsRunTimeParamTunable   10019a10 f   Cinematica_JA_reducido_sfun_registry.obj
 0001:00018a70       _ssGetSFuncBlockHandle     10019a70 f   Cinematica_JA_reducido_sfun_registry.obj
 0001:00018ac0       __ssGetCurrentInputPortWidth 10019ac0 f   Cinematica_JA_reducido_sfun_registry.obj
 0001:00018b90       __ssGetCurrentOutputPortWidth 10019b90 f   Cinematica_JA_reducido_sfun_registry.obj
 0001:00018c60       __ssGetCallSystemNumFcnCallDestinations 10019c60 f   Cinematica_JA_reducido_sfun_registry.obj
 0001:00018cc0       _ssWarning                 10019cc0 f   Cinematica_JA_reducido_sfun_registry.obj
 0001:00018da0       _ssGetIsZeroCrossControlDisabled 10019da0 f   Cinematica_JA_reducido_sfun_registry.obj
 0001:00018e00       _ssSetIsInputPortUsedForContZcSignal 10019e00 f   Cinematica_JA_reducido_sfun_registry.obj
 0001:00018e50       _ssSetZcSignalIsZcElementDisc 10019e50 f   Cinematica_JA_reducido_sfun_registry.obj
 0001:00018ed0       _ssSetZcSignalName         10019ed0 f   Cinematica_JA_reducido_sfun_registry.obj
 0001:00018f20       _ssSetZcSignalWidth        10019f20 f   Cinematica_JA_reducido_sfun_registry.obj
 0001:00018f70       _ssSetZcSignalZcEventType  10019f70 f   Cinematica_JA_reducido_sfun_registry.obj
 0001:00018fc0       _ssSetZcSignalType         10019fc0 f   Cinematica_JA_reducido_sfun_registry.obj
 0001:00019010       _ssSetZcSignalZcTol        1001a010 f   Cinematica_JA_reducido_sfun_registry.obj
 0001:00019060       _ssSetZcSignalNeedsEventNotification 1001a060 f   Cinematica_JA_reducido_sfun_registry.obj
 0001:000190b0       _ssCreateAndAddZcSignalInfo 1001a0b0 f   Cinematica_JA_reducido_sfun_registry.obj
 0001:00019110       _ssCloneAndAddZcSignalInfo 1001a110 f   Cinematica_JA_reducido_sfun_registry.obj
 0001:00019170       _ssGetNumZcSignals         1001a170 f   Cinematica_JA_reducido_sfun_registry.obj
 0001:000191d0       _ssGetZcSignalVector       1001a1d0 f   Cinematica_JA_reducido_sfun_registry.obj
 0001:00019230       _ssGetZcSignalZcEvents     1001a230 f   Cinematica_JA_reducido_sfun_registry.obj
 0001:00019290       _ssGetZcSignalName         1001a290 f   Cinematica_JA_reducido_sfun_registry.obj
 0001:000192f0       _ssGetZcSignalWidth        1001a2f0 f   Cinematica_JA_reducido_sfun_registry.obj
 0001:00019350       _ssGetZcSignalZcEventType  1001a350 f   Cinematica_JA_reducido_sfun_registry.obj
 0001:000193b0       _ssGetZcSignalType         1001a3b0 f   Cinematica_JA_reducido_sfun_registry.obj
 0001:00019410       _ssGetZcSignalZcTol        1001a410 f   Cinematica_JA_reducido_sfun_registry.obj
 0001:00019470       _ssGetZcSignalNeedsEventNotification 1001a470 f   Cinematica_JA_reducido_sfun_registry.obj
 0001:000194d0       _ssGetZcSignalIsZcElementDisc 1001a4d0 f   Cinematica_JA_reducido_sfun_registry.obj
 0001:00019550       _ssGetIsInputPortElementContinuous 1001a550 f   Cinematica_JA_reducido_sfun_registry.obj
 0001:000195d0       __ssGetInputPortSignalPtrsFcn 1001a5d0 f   Cinematica_JA_reducido_sfun_registry.obj
 0001:000197d0       __ssGetInputPortSignalFcn  1001a7d0 f   Cinematica_JA_reducido_sfun_registry.obj
 0001:00019960       __ssSetInputPortDirectFeedThroughFcn 1001a960 f   Cinematica_JA_reducido_sfun_registry.obj
 0001:00019a90       __ssSetInputPortReusableFcn 1001aa90 f   Cinematica_JA_reducido_sfun_registry.obj
 0001:00019b20       __ssSetOutputPortReusableFcn 1001ab20 f   Cinematica_JA_reducido_sfun_registry.obj
 0001:00019bb0       _ssGetDTypeIdFromMxArray   1001abb0 f   Cinematica_JA_reducido_sfun_registry.obj
 0001:00019ca0       _ssWriteRTWStr             1001aca0 f   Cinematica_JA_reducido_sfun_registry.obj
 0001:00019ce0       _ssWriteRTWMxVectParam     1001ace0 f   Cinematica_JA_reducido_sfun_registry.obj
 0001:00019d20       _ssWriteRTWMx2dMatParam    1001ad20 f   Cinematica_JA_reducido_sfun_registry.obj
 0001:00019d60       _ssWriteRTWNameValuePair   1001ad60 f   Cinematica_JA_reducido_sfun_registry.obj
 0001:0001a0d0       _ssWriteRTWParameters      1001b0d0 f   Cinematica_JA_reducido_sfun_registry.obj
 0001:0001a470       _ssWriteRTWParamSettings   1001b470 f   Cinematica_JA_reducido_sfun_registry.obj
 0001:0001a920       _ssWriteRTWWorkVect        1001b920 f   Cinematica_JA_reducido_sfun_registry.obj
 0001:0001acb0       _mexFunction               1001bcb0 f   Cinematica_JA_reducido_sfun_registry.obj
 0001:0001c380       _ProcessMexSfunctionEveryCall 1001d380 f   Cinematica_JA_reducido_sfun_registry.obj
 0001:0001c490       _Cinematica_JA_reducido_initializer 1001d490 f   Cinematica_JA_reducido_sfun.obj
 0001:0001c4a0       _Cinematica_JA_reducido_terminator 1001d4a0 f   Cinematica_JA_reducido_sfun.obj
 0001:0001c4b0       _sf_Cinematica_JA_reducido_method_dispatcher 1001d4b0 f   Cinematica_JA_reducido_sfun.obj
 0001:0001c5b0       _sf_Cinematica_JA_reducido_process_check_sum_call 1001d5b0 f   Cinematica_JA_reducido_sfun.obj
 0001:0001c9e0       _sf_Cinematica_JA_reducido_autoinheritance_info 1001d9e0 f   Cinematica_JA_reducido_sfun.obj
 0001:0001cb30       _sf_Cinematica_JA_reducido_get_eml_resolved_functions_info 1001db30 f   Cinematica_JA_reducido_sfun.obj
 0001:0001cd50       _Cinematica_JA_reducido_debug_initialize 1001dd50 f   Cinematica_JA_reducido_sfun.obj
 0001:0001cda0       _Cinematica_JA_reducido_register_exported_symbols 1001dda0 f   Cinematica_JA_reducido_sfun.obj
 0001:0001ce10       _sf_mex_mx_is_numeric      1001de10 f   sfc_mexmsvc80:sfc_mex.obj
 0001:0001ce50       _strcmp_ignore_ws          1001de50 f   sfc_mexmsvc80:sfc_mex.obj
 0001:0001cf70       _sf_mex_duplicatearraysafe 1001df70 f   sfc_mexmsvc80:sfc_mex.obj
 0001:0001d150       _sf_set_error_debugger_context_message_fcn 1001e150 f   sfc_mexmsvc80:sfc_mex.obj
 0001:0001d160       _sf_set_debugger_matlab_error_fcn 1001e160 f   sfc_mexmsvc80:sfc_mex.obj
 0001:0001d180       _sf_set_error_prefix_string 1001e180 f   sfc_mexmsvc80:sfc_mex.obj
 0001:0001d1b0       _sf_get_error_prefix_string 1001e1b0 f   sfc_mexmsvc80:sfc_mex.obj
 0001:0001d1c0       _sf_get_current_jmp_buf_ptr 1001e1c0 f   sfc_mexmsvc80:sfc_mex.obj
 0001:0001d1d0       _sf_set_current_jmp_buf_ptr 1001e1d0 f   sfc_mexmsvc80:sfc_mex.obj
 0001:0001d1e0       _sf_mex_set_halt_simulation 1001e1e0 f   sfc_mexmsvc80:sfc_mex.obj
 0001:0001d1f0       _sf_mex_get_halt_simulation 1001e1f0 f   sfc_mexmsvc80:sfc_mex.obj
 0001:0001d200       _sf_mex_clear_error_message 1001e200 f   sfc_mexmsvc80:sfc_mex.obj
 0001:0001d220       _sf_mex_get_error_message_for_read 1001e220 f   sfc_mexmsvc80:sfc_mex.obj
 0001:0001d230       _sf_mex_get_error_message_buffer_length 1001e230 f   sfc_mexmsvc80:sfc_mex.obj
 0001:0001d300       _sf_mex_warning_message    1001e300 f   sfc_mexmsvc80:sfc_mex.obj
 0001:0001d350       _sf_mex_v_errbuf_createf   1001e350 f   sfc_mexmsvc80:sfc_mex.obj
 0001:0001d370       _sf_mex_errbuf_createf     1001e370 f   sfc_mexmsvc80:sfc_mex.obj
 0001:0001d390       _sf_mex_v_errbuf_catf      1001e390 f   sfc_mexmsvc80:sfc_mex.obj
 0001:0001d3d0       _sf_mex_errbuf_catf        1001e3d0 f   sfc_mexmsvc80:sfc_mex.obj
 0001:0001d410       _sf_mex_errbuf_copy        1001e410 f   sfc_mexmsvc80:sfc_mex.obj
 0001:0001d430       _sf_mex_errbuf_clear       1001e430 f   sfc_mexmsvc80:sfc_mex.obj
 0001:0001d440       _sf_mex_errbuf_isempty     1001e440 f   sfc_mexmsvc80:sfc_mex.obj
 0001:0001d4d0       _sf_mex_set_error_status   1001e4d0 f   sfc_mexmsvc80:sfc_mex.obj
 0001:0001d500       _sf_mex_error_direct_call  1001e500 f   sfc_mexmsvc80:sfc_mex.obj
 0001:0001d520       _sf_mex_error_message_no_long_jump 1001e520 f   sfc_mexmsvc80:sfc_mex.obj
 0001:0001d550       _sf_mex_long_jump_on_error 1001e550 f   sfc_mexmsvc80:sfc_mex.obj
 0001:0001d580       _sf_mex_call_matlab        1001e580 f   sfc_mexmsvc80:sfc_mex.obj
 0001:0001d650       _sf_mex_check_builtin      1001e650 f   sfc_mexmsvc80:sfc_mex.obj
 0001:0001d680       _sf_mex_check_builtin_vs   1001e680 f   sfc_mexmsvc80:sfc_mex.obj
 0001:0001d6c0       _sf_mex_check_enum         1001e6c0 f   sfc_mexmsvc80:sfc_mex.obj
 0001:0001d6f0       _sf_mex_create_enum        1001e6f0 f   sfc_mexmsvc80:sfc_mex.obj
 0001:0001d710       _sf_mex_get_enum_element   1001e710 f   sfc_mexmsvc80:sfc_mex.obj
 0001:0001d720       _sf_mex_createcellarray    1001e720 f   sfc_mexmsvc80:sfc_mex.obj
 0001:0001d740       _sf_mex_setcell            1001e740 f   sfc_mexmsvc80:sfc_mex.obj
 0001:0001d750       _sf_mex_getcell            1001e750 f   sfc_mexmsvc80:sfc_mex.obj
 0001:0001d760       _sf_mex_dup                1001e760 f   sfc_mexmsvc80:sfc_mex.obj
 0001:0001d790       _sf_mex_assign             1001e790 f   sfc_mexmsvc80:sfc_mex.obj
 0001:0001d7e0       _sf_mex_destroy            1001e7e0 f   sfc_mexmsvc80:sfc_mex.obj
 0001:0001d800       _mx_array_has_fi_type      1001e800 f   sfc_mexmsvc80:sfc_mex.obj
 0001:0001d830       _sf_mex_convert_from_fi    1001e830 f   sfc_mexmsvc80:sfc_mex.obj
 0001:0001d8b0       _sf_mex_convert_to_double  1001e8b0 f   sfc_mexmsvc80:sfc_mex.obj
 0001:0001d8f0       _sf_mex_import_fi_vs       1001e8f0 f   sfc_mexmsvc80:sfc_mex.obj
 0001:0001da50       _sf_matrix_matrix_index_ok 1001ea50 f   sfc_mexmsvc80:sfc_mex.obj
 0001:0001dac0       _sf_vector_vector_index_ok 1001eac0 f   sfc_mexmsvc80:sfc_mex.obj
 0001:0001daf0       _ssGetCurrentInputPortDimensions_wrapper 1001eaf0 f   sfc_mexmsvc80:sfc_mex.obj
 0001:0001db10       _ssGetCurrentOutputPortDimensions_wrapper 1001eb10 f   sfc_mexmsvc80:sfc_mex.obj
 0001:0001db30       _sf_mex_emlrt_context_is_debug_mode 1001eb30 f   sfc_mexmsvc80:sfc_mex.obj
 0001:0001db40       _sf_mex_emlrt_context_set_debug_mode 1001eb40 f   sfc_mexmsvc80:sfc_mex.obj
 0001:0001db90       _sf_clear_error_manager_info 1001eb90 f   sfc_mexmsvc80:sfc_mex.obj
 0001:0001dbe0       _sf_mex_stop_simulation_abruptly_wo_error 1001ebe0 f   sfc_mexmsvc80:sfc_mex.obj
 0001:0001dc10       _sf_mex_error_message      1001ec10 f   sfc_mexmsvc80:sfc_mex.obj
 0001:0001dc60       _sf_react_to_error_in_matlab_call 1001ec60 f   sfc_mexmsvc80:sfc_mex.obj
 0001:0001dc80       _sf_mex_addfield           1001ec80 f   sfc_mexmsvc80:sfc_mex.obj
 0001:0001dcf0       _sf_mex_getfield           1001ecf0 f   sfc_mexmsvc80:sfc_mex.obj
 0001:0001df70       _sf_mex_check_class        1001ef70 f   sfc_mexmsvc80:sfc_mex.obj
 0001:0001dfe0       _sf_mex_is_real            1001efe0 f   sfc_mexmsvc80:sfc_mex.obj
 0001:0001e1f0       _sf_mex_decode_encoded_mx_struct_array 1001f1f0 f   sfc_mexmsvc80:sfc_mex.obj
 0001:0001e390       _sf_mex_lw_bounds_check    1001f390 f   sfc_mexmsvc80:sfc_mex.obj
 0001:0001e3c0       _sf_mex_lw_size_eq_check_1d 1001f3c0 f   sfc_mexmsvc80:sfc_mex.obj
 0001:0001e3e0       _sf_mex_lw_size_eq_check_nd 1001f3e0 f   sfc_mexmsvc80:sfc_mex.obj
 0001:0001e4c0       _sf_mex_lw_dim_size_eq_check 1001f4c0 f   sfc_mexmsvc80:sfc_mex.obj
 0001:0001e4f0       _sf_mex_lw_dim_size_geq_check 1001f4f0 f   sfc_mexmsvc80:sfc_mex.obj
 0001:0001e520       _sf_mex_lw_sub_assign_size_check_nd 1001f520 f   sfc_mexmsvc80:sfc_mex.obj
 0001:0001e650       _sf_mex_lw_runtime_error_msgid 1001f650 f   sfc_mexmsvc80:sfc_mex.obj
 0001:0001e700       _sf_mex_lw_matrix_matrix_index_check 1001f700 f   sfc_mexmsvc80:sfc_mex.obj
 0001:0001e730       _sf_mex_lw_vector_vector_index_check 1001f730 f   sfc_mexmsvc80:sfc_mex.obj
 0001:0001e770       _sf_mex_lw_non_negative_check 1001f770 f   sfc_mexmsvc80:sfc_mex.obj
 0001:0001e7a0       _sf_mex_overflow_error     1001f7a0 f   sfc_mexmsvc80:sfc_mex.obj
 0001:0001e7b0       _sf_mex_dividebyzero_error 1001f7b0 f   sfc_mexmsvc80:sfc_mex.obj
 0001:0001e7c0       _sf_mex_unsafe_enum_error  1001f7c0 f   sfc_mexmsvc80:sfc_mex.obj
 0001:0001e7d0       _sf_emlrtErrHandler        1001f7d0 f   sfc_mexmsvc80:sfc_mex.obj
 0001:0001e880       _sf_mex_printf             1001f880 f   sfc_mexmsvc80:sfc_mex.obj
 0001:0001e960       _sf_mex_check_size         1001f960 f   sfc_mexmsvc80:sfc_mex.obj
 0001:0001ebe0       _sf_mex_check_struct       1001fbe0 f   sfc_mexmsvc80:sfc_mex.obj
 0001:0001ee30       _sf_mex_check_struct_vs    1001fe30 f   sfc_mexmsvc80:sfc_mex.obj
 0001:0001ee70       _sf_mex_check_fi           1001fe70 f   sfc_mexmsvc80:sfc_mex.obj
 0001:0001ef40       _sf_mex_check_fi_vs        1001ff40 f   sfc_mexmsvc80:sfc_mex.obj
 0001:0001ef90       _sf_echo_expression        1001ff90 f   sfc_mexmsvc80:sfc_mex.obj
 0001:0001efe0       _sf_assertion_failed       1001ffe0 f   sfc_mexmsvc80:sfc_mex.obj
 0001:0001f270       _sf_mex_evalin             10020270 f   sfc_mexmsvc80:sfc_mex.obj
 0001:0001f4d0       _sf_mex_export             100204d0 f   sfc_mexmsvc80:sfc_mex.obj
 0001:0001f580       _sf_mex_get_ml_var_no_error 10020580 f   sfc_mexmsvc80:sfc_mex.obj
 0001:0001f6e0       _sf_mex_get_ml_var         100206e0 f   sfc_mexmsvc80:sfc_mex.obj
 0001:0001fbb0       _ml_set_element_value_in_array 10020bb0 f   sfc_mexmsvc80:sfc_mex.obj
 0001:00020ce0       _sf_mex_call_impl          10021ce0 f   sfc_mexmsvc80:sfc_mex.obj
 0001:00021070       _sf_mex_call_debug         10022070 f   sfc_mexmsvc80:sfc_mex.obj
 0001:00021090       _sf_mex_call               10022090 f   sfc_mexmsvc80:sfc_mex.obj
 0001:000217a0       _sf_mex_createstruct       100227a0 f   sfc_mexmsvc80:sfc_mex.obj
 0001:00021840       _sf_mex_createstructarray  10022840 f   sfc_mexmsvc80:sfc_mex.obj
 0001:000218a0       _sf_mex_get_mx_datatype_from_sf_datatype 100228a0 f   sfc_mexmsvc80:sfc_mex.obj
 0001:00021b20       _sf_mex_ml_var_sub         10022b20 f   sfc_mexmsvc80:sfc_mex.obj
 0001:00021c90       _sf_mex_ml_var_subsasgn    10022c90 f   sfc_mexmsvc80:sfc_mex.obj
 0001:00021fb0       _sf_mex_sub                10022fb0 f   sfc_mexmsvc80:sfc_mex.obj
 0001:00022150       _sf_mex_subsasgn           10023150 f   sfc_mexmsvc80:sfc_mex.obj
 0001:00022530       _sf_mex_create             10023530 f   sfc_mexmsvc80:sfc_mex.obj
 0001:00022e20       _sf_mex_import_named       10023e20 f   sfc_mexmsvc80:sfc_mex.obj
 0001:00022e70       _sf_mex_import             10023e70 f   sfc_mexmsvc80:sfc_mex.obj
 0001:00022eb0       _sf_mex_import_vs          10023eb0 f   sfc_mexmsvc80:sfc_mex.obj
 0001:00022f50       _sf_mex_lower_fixpt_mx_array 10023f50 f   sfc_mexmsvc80:sfc_mex.obj
 0001:00023310       _sim_mode_is_rtw_gen       10024310 f   sfc_mexmsvc80:sfc_sf.obj
 0001:00023350       _sim_mode_is_external      10024350 f   sfc_mexmsvc80:sfc_sf.obj
 0001:00023370       _sim_mode_is_modelref_sim  10024370 f   sfc_mexmsvc80:sfc_sf.obj
 0001:000233a0       _mdlInitializeSizes        100243a0 f   sfc_mexmsvc80:sfc_sf.obj
 0001:000233c0       _mdlInitializeSampleTimes  100243c0 f   sfc_mexmsvc80:sfc_sf.obj
 0001:00023400       _mdlZeroCrossings          10024400 f   sfc_mexmsvc80:sfc_sf.obj
 0001:000234b0       _mdlDerivatives            100244b0 f   sfc_mexmsvc80:sfc_sf.obj
 0001:00023550       _mdl_initialize_conditions_processing 10024550 f   sfc_mexmsvc80:sfc_sf.obj
 0001:00023580       _mdlInitializeConditions   10024580 f   sfc_mexmsvc80:sfc_sf.obj
 0001:00023620       _mdlGetSimState            10024620 f   sfc_mexmsvc80:sfc_sf.obj
 0001:00023640       _mdlSetSimState            10024640 f   sfc_mexmsvc80:sfc_sf.obj
 0001:00023660       _mdl_ext_mode_exec_processing 10024660 f   sfc_mexmsvc80:sfc_sf.obj
 0001:00023680       _mdlExtModeExec            10024680 f   sfc_mexmsvc80:sfc_sf.obj
 0001:00023810       _mdlTerminate              10024810 f   sfc_mexmsvc80:sfc_sf.obj
 0001:00023870       _mdlRTW                    10024870 f   sfc_mexmsvc80:sfc_sf.obj
 0001:000238a0       _mdlSetWorkWidths          100248a0 f   sfc_mexmsvc80:sfc_sf.obj
 0001:000238c0       _mdlProcessParameters      100248c0 f   sfc_mexmsvc80:sfc_sf.obj
 0001:000238e0       _mdl_start_processing      100248e0 f   sfc_mexmsvc80:sfc_sf.obj
 0001:00023920       _mdlStart                  10024920 f   sfc_mexmsvc80:sfc_sf.obj
 0001:000239f0       _mdlEnable                 100249f0 f   sfc_mexmsvc80:sfc_sf.obj
 0001:00023aa0       _mdlDisable                10024aa0 f   sfc_mexmsvc80:sfc_sf.obj
 0001:00023b30       _sf_get_chart_instance_ptr 10024b30 f   sfc_mexmsvc80:sfc_sf.obj
 0001:00023b50       _sf_rtw_info_uint_prop     10024b50 f   sfc_mexmsvc80:sfc_sf.obj
 0001:00023c90       _sf_is_chart_inlinable     10024c90 f   sfc_mexmsvc80:sfc_sf.obj
 0001:00023cc0       _sf_mark_output_events_with_multiple_callers 10024cc0 f   sfc_mexmsvc80:sfc_sf.obj
 0001:00023e40       _sf_mark_chart_reusable_outputs 10024e40 f   sfc_mexmsvc80:sfc_sf.obj
 0001:00023fd0       _sf_mark_chart_expressionable_inputs 10024fd0 f   sfc_mexmsvc80:sfc_sf.obj
 0001:000241d0       _sf_get_subchart_simstruct 100251d0 f   sfc_mexmsvc80:sfc_sf.obj
 0001:00024210       _sf_write_symbol_mapping   10025210 f   sfc_mexmsvc80:sfc_sf.obj
 0001:000243f0       _sf_get_fixpt_data_type_id 100253f0 f   sfc_mexmsvc80:sfc_sf.obj
 0001:00024430       _sf_get_enum_data_type_id  10025430 f   sfc_mexmsvc80:sfc_sf.obj
 0001:00024470       _sf_get_param_data_type_id 10025470 f   sfc_mexmsvc80:sfc_sf.obj
 0001:000244a0       _sf_mex_listen_for_ctrl_c_force 100254a0 f   sfc_mexmsvc80:sfc_sf.obj
 0001:000245a0       _sf_mex_draw_now           100255a0 f   sfc_mexmsvc80:sfc_sf.obj
 0001:000245e0       _sf_mex_set_debugger_sim_status_listener_fcn 100255e0 f   sfc_mexmsvc80:sfc_sf.obj
 0001:000245f0       _sf_mex_listen_for_ctrl_c  100255f0 f   sfc_mexmsvc80:sfc_sf.obj
 0001:00024680       _sf_mex_get_sfun_param     10025680 f   sfc_mexmsvc80:sfc_sf.obj
 0001:000246d0       _sf_get_runtime_param_data 100256d0 f   sfc_mexmsvc80:sfc_sf.obj
 0001:00024710       _sf_call_output_fcn_call   10025710 f   sfc_mexmsvc80:sfc_sf.obj
 0001:00024830       _sf_call_output_fcn_enable 10025830 f   sfc_mexmsvc80:sfc_sf.obj
 0001:000248b0       _sf_call_output_fcn_disable 100258b0 f   sfc_mexmsvc80:sfc_sf.obj
 0001:00024930       _sf_clear_rtw_identifier   10025930 f   sfc_mexmsvc80:sfc_sf.obj
 0001:00025160       _sf_set_encoded_dwork_info 10026160 f   sfc_mexmsvc80:sfc_sf.obj
 0001:000251a0       _sf_get_dwork_info_from_mat_file 100261a0 f   sfc_mexmsvc80:sfc_sf.obj
 0001:00025310       _sf_set_rtw_dwork_info     10026310 f   sfc_mexmsvc80:sfc_sf.obj
 0001:00025440       _mdlOutputs                10026440 f   sfc_mexmsvc80:sfc_sf.obj
 0001:00025550       _sf_debug_disp             10026550 f   sfc_debugmsvc80:sfcdebug.obj
 0001:00025750       _sf_debug_data_runtime_size_mismatch_error_check 10026750 f   sfc_debugmsvc80:sfcdebug.obj
 0001:00025790       _sf_debug_try_loading_machine 10026790 f   sfc_debugmsvc80:sfcdebug.obj
 0001:00025860       _sf_debug_reset_current_state_configuration 10026860 f   sfc_debugmsvc80:sfcdebug.obj
 0001:000258a0       _sf_debug_store_current_state_configuration 100268a0 f   sfc_debugmsvc80:sfcdebug.obj
 0001:000258e0       _sf_debug_restore_previous_state_configuration 100268e0 f   sfc_debugmsvc80:sfcdebug.obj
 0001:00025920       _sf_debug_restore_previous_state_configuration2 10026920 f   sfc_debugmsvc80:sfcdebug.obj
 0001:00025960       _sf_debug_get_event_scope  10026960 f   sfc_debugmsvc80:sfcdebug.obj
 0001:00025a80       _use_debugger_step_animation 10026a80 f   sfc_debugmsvc80:sfcdebug.obj
 0001:00025aa0       _sf_debug_get_script_id    10026aa0 f   sfc_debugmsvc80:sfcdebug.obj
 0001:00025b30       _sf_debug_set_script_translation 10026b30 f   sfc_debugmsvc80:sfcdebug.obj
 0001:00025bc0       _sf_debug_get_current_machine_id 10026bc0 f   sfc_debugmsvc80:sfcdebug.obj
 0001:00025be0       _sf_debug_get_current_optional_integer 10026be0 f   sfc_debugmsvc80:sfcdebug.obj
 0001:00025bf0       _sf_debug_get_current_machine_number 10026bf0 f   sfc_debugmsvc80:sfcdebug.obj
 0001:00025c10       _sf_debug_get_current_machine_name 10026c10 f   sfc_debugmsvc80:sfcdebug.obj
 0001:00025c30       _sf_debug_get_current_chart_id 10026c30 f   sfc_debugmsvc80:sfcdebug.obj
 0001:00025c60       _sf_debug_get_current_chart_number 10026c60 f   sfc_debugmsvc80:sfcdebug.obj
 0001:00025c70       _sf_debug_get_current_instance_number 10026c70 f   sfc_debugmsvc80:sfcdebug.obj
 0001:00025c80       _sf_debug_get_current_is_minor_time_step 10026c80 f   sfc_debugmsvc80:sfcdebug.obj
 0001:00025cf0       _sf_debug_get_current_object_type 10026cf0 f   sfc_debugmsvc80:sfcdebug.obj
 0001:00025d00       _sf_debug_get_current_instance_handle 10026d00 f   sfc_debugmsvc80:sfcdebug.obj
 0001:00025d50       _sf_debug_get_current_event_type 10026d50 f   sfc_debugmsvc80:sfcdebug.obj
 0001:00025d60       _sf_debug_get_current_object_id 10026d60 f   sfc_debugmsvc80:sfcdebug.obj
 0001:00025d90       _sf_debug_get_current_active_event_type 10026d90 f   sfc_debugmsvc80:sfcdebug.obj
 0001:00025da0       _sf_debug_get_current_active_event_id 10026da0 f   sfc_debugmsvc80:sfcdebug.obj
 0001:00025dd0       _sf_debug_get_current_tag_type 10026dd0 f   sfc_debugmsvc80:sfcdebug.obj
 0001:00025de0       _sf_debug_get_current_simulation_time 10026de0 f   sfc_debugmsvc80:sfcdebug.obj
 0001:00025df0       _sf_debug_get_current_coverage_percentage 10026df0 f   sfc_debugmsvc80:sfcdebug.obj
 0001:00025e00       _sf_debug_current_statement_context 10026e00 f   sfc_debugmsvc80:sfcdebug.obj
 0001:00025e80       _sf_debug_get_current_statement_info 10026e80 f   sfc_debugmsvc80:sfcdebug.obj
 0001:00025fc0       _sf_debug_terminate_instance 10026fc0 f   sfc_debugmsvc80:sfcdebug.obj
 0001:00026240       _sf_debug_assertion_failed 10027240 f   sfc_debugmsvc80:sfcdebug.obj
 0001:00026410       _sf_debug_set_number_of_data_with_change_event_for_machine 10027410 f   sfc_debugmsvc80:sfcdebug.obj
 0001:00026450       _sf_debug_set_machine_event_thresholds 10027450 f   sfc_debugmsvc80:sfcdebug.obj
 0001:00026480       _sf_debug_set_machine_event_scope 10027480 f   sfc_debugmsvc80:sfcdebug.obj
 0001:000264c0       _sf_debug_set_machine_data_thresholds 100274c0 f   sfc_debugmsvc80:sfcdebug.obj
 0001:00026500       _sf_debug_set_machine_data_scope 10027500 f   sfc_debugmsvc80:sfcdebug.obj
 0001:00026580       _sf_debug_set_machine_data_name 10027580 f   sfc_debugmsvc80:sfcdebug.obj
 0001:000265d0       _sf_debug_set_machine_data_size 100275d0 f   sfc_debugmsvc80:sfcdebug.obj
 0001:000266c0       _sf_debug_set_machine_data_type 100276c0 f   sfc_debugmsvc80:sfcdebug.obj
 0001:000267e0       _sf_debug_get_chart_data_number 100277e0 f   sfc_debugmsvc80:sfcdebug.obj
 0001:00026810       _sf_debug_get_chart_event_number 10027810 f   sfc_debugmsvc80:sfcdebug.obj
 0001:00026840       _sf_debug_set_chart_state_info 10027840 f   sfc_debugmsvc80:sfcdebug.obj
 0001:000268c0       _sf_debug_set_chart_decomposition 100278c0 f   sfc_debugmsvc80:sfcdebug.obj
 0001:00026930       _sf_debug_set_chart_substate_count 10027930 f   sfc_debugmsvc80:sfcdebug.obj
 0001:000269f0       _sf_debug_set_chart_substate_index 100279f0 f   sfc_debugmsvc80:sfcdebug.obj
 0001:00026a60       _sf_debug_set_chart_state_substate_count 10027a60 f   sfc_debugmsvc80:sfcdebug.obj
 0001:00026b40       _sf_debug_set_chart_state_substate_index 10027b40 f   sfc_debugmsvc80:sfcdebug.obj
 0001:00026bc0       _sf_debug_set_number_of_data_with_change_event_for_chart 10027bc0 f   sfc_debugmsvc80:sfcdebug.obj
 0001:00026c40       _sf_debug_set_number_of_states_with_entry_event_for_chart 10027c40 f   sfc_debugmsvc80:sfcdebug.obj
 0001:00026cb0       _sf_debug_set_number_of_states_with_exit_event_for_chart 10027cb0 f   sfc_debugmsvc80:sfcdebug.obj
 0001:00026d20       _sf_debug_set_chart_disable_implicit_casting 10027d20 f   sfc_debugmsvc80:sfcdebug.obj
 0001:00026d90       _sf_debug_set_chart_event_thresholds 10027d90 f   sfc_debugmsvc80:sfcdebug.obj
 0001:00026e00       _sf_debug_set_chart_data_compiled_props 10027e00 f   sfc_debugmsvc80:sfcdebug.obj
 0001:00027070       _sf_debug_set_chart_data_props 10028070 f   sfc_debugmsvc80:sfcdebug.obj
 0001:000272e0       _sf_debug_check_fi_license 100282e0 f   sfc_debugmsvc80:sfcdebug.obj
 0001:00027470       _sf_debug_symbol_scope_push 10028470 f   sfc_debugmsvc80:sfcdebug.obj
 0001:000274b0       _sf_debug_symbol_scope_push_eml 100284b0 f   sfc_debugmsvc80:sfcdebug.obj
 0001:000274f0       _sf_debug_symbol_scope_pop 100284f0 f   sfc_debugmsvc80:sfcdebug.obj
 0001:00027520       _sf_debug_symbol_scope_add_importable 10028520 f   sfc_debugmsvc80:sfcdebug.obj
 0001:00027580       _sf_debug_symbol_scope_add 10028580 f   sfc_debugmsvc80:sfcdebug.obj
 0001:000275e0       _sf_debug_symbol_scope_add_dyn_importable 100285e0 f   sfc_debugmsvc80:sfcdebug.obj
 0001:00027650       _sf_debug_symbol_scope_add_dyn 10028650 f   sfc_debugmsvc80:sfcdebug.obj
 0001:00027680       _sf_debug_symbol_scope_add_eml_importable 10028680 f   sfc_debugmsvc80:sfcdebug.obj
 0001:000276b0       _sf_debug_symbol_scope_add_eml 100286b0 f   sfc_debugmsvc80:sfcdebug.obj
 0001:000276e0       _sf_debug_symbol_scope_add_eml_dyn_importable 100286e0 f   sfc_debugmsvc80:sfcdebug.obj
 0001:00027730       _sf_debug_symbol_scope_add_eml_dyn 10028730 f   sfc_debugmsvc80:sfcdebug.obj
 0001:00027780       _sf_debug_symbol_switch    10028780 f   sfc_debugmsvc80:sfcdebug.obj
 0001:000277a0       _sf_debug_symbol_scope_add_verbose 100287a0 f   sfc_debugmsvc80:sfcdebug.obj
 0001:00027810       _sf_debug_set_machine_data_value_ptr 10028810 f   sfc_debugmsvc80:sfcdebug.obj
 0001:00027850       _sf_debug_set_instance_data_value_ptr 10028850 f   sfc_debugmsvc80:sfcdebug.obj
 0001:000278b0       _sf_debug_unset_instance_data_value_ptr 100288b0 f   sfc_debugmsvc80:sfcdebug.obj
 0001:00027900       _sf_debug_set_chart_event_scope 10028900 f   sfc_debugmsvc80:sfcdebug.obj
 0001:00027980       _sf_debug_set_chart_transition_coverage_maps 10028980 f   sfc_debugmsvc80:sfcdebug.obj
 0001:00027a10       _sf_debug_set_chart_state_coverage_maps 10028a10 f   sfc_debugmsvc80:sfcdebug.obj
 0001:00027a90       _sf_debug_set_instance_transition_coverage_weights 10028a90 f   sfc_debugmsvc80:sfcdebug.obj
 0001:00027b00       _sf_debug_set_instance_state_coverage_weights 10028b00 f   sfc_debugmsvc80:sfcdebug.obj
 0001:00027d00       _sf_debug_unload_machine   10028d00 f   sfc_debugmsvc80:sfcdebug.obj
 0001:00027d50       _sf_debug_load_machine     10028d50 f   sfc_debugmsvc80:sfcdebug.obj
 0001:00027e00       _sf_debug_set_active_instance_in_data_dictionary 10028e00 f   sfc_debugmsvc80:sfcdebug.obj
 0001:00027f80       _sf_debug_set_active_instance 10028f80 f   sfc_debugmsvc80:sfcdebug.obj
 0001:00028070       _sf_debug_chart_visiblity_change 10029070 f   sfc_debugmsvc80:sfcdebug.obj
 0001:00028110       _sf_debug_select_chart     10029110 f   sfc_debugmsvc80:sfcdebug.obj
 0001:000281b0       _sf_debug_set_instance_cv_ids 100291b0 f   sfc_debugmsvc80:sfcdebug.obj
 0001:00028370       _sf_debug_select_charts    10029370 f   sfc_debugmsvc80:sfcdebug.obj
 0001:00028450       _sf_debug_initialized      10029450 f   sfc_debugmsvc80:sfcdebug.obj
 0001:00028460       _sf_debug_is_uninterruptible 10029460 f   sfc_debugmsvc80:sfcdebug.obj
 0001:00028490       _sf_debug_initialize_debugger_gui 10029490 f   sfc_debugmsvc80:sfcdebug.obj
 0001:00028810       _sf_debug_resume           10029810 f   sfc_debugmsvc80:sfcdebug.obj
 0001:00028830       _sf_debug_go               10029830 f   sfc_debugmsvc80:sfcdebug.obj
 0001:00028840       _sf_debug_break            10029840 f   sfc_debugmsvc80:sfcdebug.obj
 0001:00028850       _sf_debug_step_over        10029850 f   sfc_debugmsvc80:sfcdebug.obj
 0001:00028860       _sf_debug_step_out         10029860 f   sfc_debugmsvc80:sfcdebug.obj
 0001:00028870       _sf_debug_set_disable_all_breakpoints 10029870 f   sfc_debugmsvc80:sfcdebug.obj
 0001:00028880       _sf_debug_disable_all_breakpoints_and_go 10029880 f   sfc_debugmsvc80:sfcdebug.obj
 0001:00028890       _sf_debug_break_on_chart_entry 10029890 f   sfc_debugmsvc80:sfcdebug.obj
 0001:000288a0       _sf_debug_break_on_event_broadcast 100298a0 f   sfc_debugmsvc80:sfcdebug.obj
 0001:000288b0       _sf_debug_break_on_state_entry 100298b0 f   sfc_debugmsvc80:sfcdebug.obj
 0001:000288c0       _sf_debug_break_between_times 100298c0 f   sfc_debugmsvc80:sfcdebug.obj
 0001:000288f0       _sf_debug_browse_data      100298f0 f   sfc_debugmsvc80:sfcdebug.obj
 0001:00028910       _sf_debug_watch_data       10029910 f   sfc_debugmsvc80:sfcdebug.obj
 0001:00028930       _sf_debug_assign_data      10029930 f   sfc_debugmsvc80:sfcdebug.obj
 0001:00028950       _sf_debug_whos             10029950 f   sfc_debugmsvc80:sfcdebug.obj
 0001:00028970       _sf_debug_get_consistency_info 10029970 f   sfc_debugmsvc80:sfcdebug.obj
 0001:00028990       _sf_debug_browse_trace     10029990 f   sfc_debugmsvc80:sfcdebug.obj
 0001:000289b0       _sf_debug_set_breakpoints  100299b0 f   sfc_debugmsvc80:sfcdebug.obj
 0001:00028a70       _sf_debug_set_eml_breakpoints 10029a70 f   sfc_debugmsvc80:sfcdebug.obj
 0001:00028b80       _sf_debug_set_script_breakpoints 10029b80 f   sfc_debugmsvc80:sfcdebug.obj
 0001:00028c00       _sf_debug_add_script_breakpoints 10029c00 f   sfc_debugmsvc80:sfcdebug.obj
 0001:00028c70       _sf_debug_clear_script_breakpoints 10029c70 f   sfc_debugmsvc80:sfcdebug.obj
 0001:00028ce0       _sf_debug_query_script_breakpoints 10029ce0 f   sfc_debugmsvc80:sfcdebug.obj
 0001:00028d80       _sf_debug_get_eml_script_id 10029d80 f   sfc_debugmsvc80:sfcdebug.obj
 0001:00028dd0       _sf_debug_set_watch        10029dd0 f   sfc_debugmsvc80:sfcdebug.obj
 0001:00028f60       _sf_debug_get_coverage     10029f60 f   sfc_debugmsvc80:sfcdebug.obj
 0001:00028f80       _sf_debug_get_instance_handle 10029f80 f   sfc_debugmsvc80:sfcdebug.obj
 0001:00029000       _sf_debug_get_active_states 1002a000 f   sfc_debugmsvc80:sfcdebug.obj
 0001:00029020       _sf_debug_get_animation    1002a020 f   sfc_debugmsvc80:sfcdebug.obj
 0001:00029030       _sf_debug_set_animation    1002a030 f   sfc_debugmsvc80:sfcdebug.obj
 0001:00029040       _sf_debug_animate          1002a040 f   sfc_debugmsvc80:sfcdebug.obj
 0001:00029070       _sf_debug_cycle_detection_check 1002a070 f   sfc_debugmsvc80:sfcdebug.obj
 0001:00029080       _sf_debug_data_range_check 1002a080 f   sfc_debugmsvc80:sfcdebug.obj
 0001:00029090       _sf_debug_transition_conflict_check 1002a090 f   sfc_debugmsvc80:sfcdebug.obj
 0001:000290a0       _sf_debug_state_consistency_check 1002a0a0 f   sfc_debugmsvc80:sfcdebug.obj
 0001:000290b0       _sf_debug_data_range_check_enabled 1002a0b0 f   sfc_debugmsvc80:sfcdebug.obj
 0001:000290c0       _sf_debug_transition_conflict_check_enabled 1002a0c0 f   sfc_debugmsvc80:sfcdebug.obj
 0001:000290d0       _sf_debug_transition_conflict_check_begin 1002a0d0 f   sfc_debugmsvc80:sfcdebug.obj
 0001:000290f0       _sf_debug_transition_conflict_check_end 1002a0f0 f   sfc_debugmsvc80:sfcdebug.obj
 0001:00029110       _sf_debug_stop_debugging   1002a110 f   sfc_debugmsvc80:sfcdebug.obj
 0001:00029140       _sf_debug_is_cycle_detected 1002a140 f   sfc_debugmsvc80:sfcdebug.obj
 0001:00029150       _sf_debug_is_array_bounds_detected 1002a150 f   sfc_debugmsvc80:sfcdebug.obj
 0001:00029160       _sf_debug_get_state_vectors_data_size 1002a160 f   sfc_debugmsvc80:sfcdebug.obj
 0001:000291a0       _sf_debug_get_state_vectors_data 1002a1a0 f   sfc_debugmsvc80:sfcdebug.obj
 0001:00029270       _sf_debug_set_state_vectors_data 1002a270 f   sfc_debugmsvc80:sfcdebug.obj
 0001:000294a0       _sf_debug_get_script_index 1002a4a0 f   sfc_debugmsvc80:sfcdebug.obj
 0001:000295d0       _sf_debug_add_script       1002a5d0 f   sfc_debugmsvc80:sfcdebug.obj
 0001:00029720       _cv_eval_point             1002a720 f   sfc_debugmsvc80:sfcdebug.obj
 0001:000297f0       _sf_debug_cv_init_state    1002a7f0 f   sfc_debugmsvc80:sfcdebug.obj
 0001:00029880       _sf_debug_cv_init_chart    1002a880 f   sfc_debugmsvc80:sfcdebug.obj
 0001:00029900       _sf_debug_cv_init_trans    1002a900 f   sfc_debugmsvc80:sfcdebug.obj
 0001:000299e0       _cv_eml_init_script        1002a9e0 f   sfc_debugmsvc80:sfcdebug.obj
 0001:00029a50       _cv_eml_init_fcn           1002aa50 f   sfc_debugmsvc80:sfcdebug.obj
 0001:00029ab0       _cv_eml_init_testobjective 1002aab0 f   sfc_debugmsvc80:sfcdebug.obj
 0001:00029b10       _cv_eml_init_if            1002ab10 f   sfc_debugmsvc80:sfcdebug.obj
 0001:00029b70       _cv_eml_init_for           1002ab70 f   sfc_debugmsvc80:sfcdebug.obj
 0001:00029bd0       _cv_eml_init_while         1002abd0 f   sfc_debugmsvc80:sfcdebug.obj
 0001:00029c30       _cv_eml_init_mcdc          1002ac30 f   sfc_debugmsvc80:sfcdebug.obj
 0001:00029ca0       _cv_eml_init_switch        1002aca0 f   sfc_debugmsvc80:sfcdebug.obj
 0001:00029d00       _cv_eml_eval               1002ad00 f   sfc_debugmsvc80:sfcdebug.obj
 0001:00029d70       _sf_debug_bm_is_a_eml_breakpoint 1002ad70 f   sfc_debugmsvc80:sfcdebug.obj
 0001:00029ea0       _sf_debug_temporal_threshold 1002aea0 f   sfc_debugmsvc80:sfcdebug.obj
 0001:0002a190       _sf_debug_transition_conflict_error 1002b190 f   sfc_debugmsvc80:sfcdebug.obj
 0001:0002a430       _sf_debug_state_inconsistency_error 1002b430 f   sfc_debugmsvc80:sfcdebug.obj
 0001:0002a520       _sf_debug_check_for_state_inconsistency 1002b520 f   sfc_debugmsvc80:sfcdebug.obj
 0001:0002a560       _sf_debug_cycle_detecton_error 1002b560 f   sfc_debugmsvc80:sfcdebug.obj
 0001:0002ab90       _sf_debug_size_eq_check_1d 1002bb90 f   sfc_debugmsvc80:sfcdebug.obj
 0001:0002abb0       _sf_debug_size_eq_check_nd 1002bbb0 f   sfc_debugmsvc80:sfcdebug.obj
 0001:0002ac90       _sf_debug_dim_size_eq_check 1002bc90 f   sfc_debugmsvc80:sfcdebug.obj
 0001:0002acc0       _sf_debug_dim_size_geq_check 1002bcc0 f   sfc_debugmsvc80:sfcdebug.obj
 0001:0002acf0       _sf_debug_sub_assign_size_check_nd 1002bcf0 f   sfc_debugmsvc80:sfcdebug.obj
 0001:0002ae10       _sf_debug_matrix_matrix_index_check 1002be10 f   sfc_debugmsvc80:sfcdebug.obj
 0001:0002ae50       _sf_debug_vector_vector_index_check 1002be50 f   sfc_debugmsvc80:sfcdebug.obj
 0001:0002ae90       _sf_debug_runtime_error_msgid 1002be90 f   sfc_debugmsvc80:sfcdebug.obj
 0001:0002af20       _sf_debug_data_array_bounds_error_check 1002bf20 f   sfc_debugmsvc80:sfcdebug.obj
 0001:0002af80       _sf_debug_eml_data_array_bounds_error_check 1002bf80 f   sfc_debugmsvc80:sfcdebug.obj
 0001:0002b270       _sf_debug_integer_check    1002c270 f   sfc_debugmsvc80:sfcdebug.obj
 0001:0002b2f0       _sf_debug_not_nan_check    1002c2f0 f   sfc_debugmsvc80:sfcdebug.obj
 0001:0002b340       _sf_debug_non_negative_check 1002c340 f   sfc_debugmsvc80:sfcdebug.obj
 0001:0002b3a0       _sf_debug_overflow_detection 1002c3a0 f   sfc_debugmsvc80:sfcdebug.obj
 0001:0002b8c0       _sf_debug_cast_to_real32_T 1002c8c0 f   sfc_debugmsvc80:sfcdebug.obj
 0001:0002b920       _sf_debug_cast_to_int8_T   1002c920 f   sfc_debugmsvc80:sfcdebug.obj
 0001:0002b9a0       _sf_debug_cast_to_uint8_T  1002c9a0 f   sfc_debugmsvc80:sfcdebug.obj
 0001:0002ba30       _sf_debug_cast_to_int16_T  1002ca30 f   sfc_debugmsvc80:sfcdebug.obj
 0001:0002bab0       _sf_debug_cast_to_uint16_T 1002cab0 f   sfc_debugmsvc80:sfcdebug.obj
 0001:0002bb40       _sf_debug_cast_to_int32_T  1002cb40 f   sfc_debugmsvc80:sfcdebug.obj
 0001:0002bbb0       _sf_debug_cast_to_uint32_T 1002cbb0 f   sfc_debugmsvc80:sfcdebug.obj
 0001:0002bc40       _sf_debug_data_range_error 1002cc40 f   sfc_debugmsvc80:sfcdebug.obj
 0001:0002bfb0       _sf_debug_data_range_error_wrapper_min_max 1002cfb0 f   sfc_debugmsvc80:sfcdebug.obj
 0001:0002c020       _sf_debug_data_range_error_wrapper_min 1002d020 f   sfc_debugmsvc80:sfcdebug.obj
 0001:0002c080       _sf_debug_data_range_error_wrapper_max 1002d080 f   sfc_debugmsvc80:sfcdebug.obj
 0001:0002c0e0       _sf_debug_data_range_wrapper 1002d0e0 f   sfc_debugmsvc80:sfcdebug.obj
 0001:0002c130       _sf_debug_set_current_status_info 1002d130 f   sfc_debugmsvc80:sfcdebug.obj
 0001:0002c490       _sf_debug_call             1002d490 f   sfc_debugmsvc80:sfcdebug.obj
 0001:0002ce80       _sf_debug_initialize_machine 1002de80 f   sfc_debugmsvc80:sfcdebug.obj
 0001:0002d120       _sf_debug_initialize_chart 1002e120 f   sfc_debugmsvc80:sfcdebug.obj
 0001:0002d480       _sf_debug_ensure_script    1002e480 f   sfc_debugmsvc80:sfcdebug.obj
 0001:0002d530       _cv_script_init_script     1002e530 f   sfc_debugmsvc80:sfcdebug.obj
 0001:0002d590       _cv_script_init_fcn        1002e590 f   sfc_debugmsvc80:sfcdebug.obj
 0001:0002d5e0       _cv_script_init_testobjective 1002e5e0 f   sfc_debugmsvc80:sfcdebug.obj
 0001:0002d630       _cv_script_init_if         1002e630 f   sfc_debugmsvc80:sfcdebug.obj
 0001:0002d680       _cv_script_init_for        1002e680 f   sfc_debugmsvc80:sfcdebug.obj
 0001:0002d6d0       _cv_script_init_while      1002e6d0 f   sfc_debugmsvc80:sfcdebug.obj
 0001:0002d720       _cv_script_init_mcdc       1002e720 f   sfc_debugmsvc80:sfcdebug.obj
 0001:0002d780       _cv_script_init_switch     1002e780 f   sfc_debugmsvc80:sfcdebug.obj
 0001:0002d7e0       _cv_script_eval            1002e7e0 f   sfc_debugmsvc80:sfcdebug.obj
 0001:0002d840       _eml_debug_line_call       1002e840 f   sfc_debugmsvc80:sfcdebug.obj
 0001:0002d940       _sf_debug_terminate        1002e940 f   sfc_debugmsvc80:sfcdebug.obj
 0001:0002da70       _sf_debug_set_script_cv_ids 1002ea70 f   sfc_debugmsvc80:sfcdebug.obj
 0001:0002db80       _sf_debug_api              1002eb80 f   sfc_debugmsvc80:sfc_api.obj
 0001:0002f530       _sf_debug_sm_terminate     10030530 f   sfc_debugmsvc80:sfdb_animation.obj
 0001:0002f6a0       _sf_debug_reset_path_objects 100306a0 f   sfc_debugmsvc80:sfdb_animation.obj
 0001:0002f710       _sf_debug_sm_reset_object_selection_status 10030710 f   sfc_debugmsvc80:sfdb_animation.obj
 0001:0002f7b0       _sf_debug_sm_reset_state_buffer 100307b0 f   sfc_debugmsvc80:sfdb_animation.obj
 0001:0002f870       _sf_debug_sm_store_state_buffer 10030870 f   sfc_debugmsvc80:sfdb_animation.obj
 0001:0002f8f0       _sf_debug_sm_restore_state_buffer1 100308f0 f   sfc_debugmsvc80:sfdb_animation.obj
 0001:0002f950       _sf_debug_sm_restore_state_buffer2 10030950 f   sfc_debugmsvc80:sfdb_animation.obj
 0001:0002f9b0       _sf_debug_sm_chart_active  100309b0 f   sfc_debugmsvc80:sfdb_animation.obj
 0001:0002fa00       _sf_debug_sm_select_active_objects 10030a00 f   sfc_debugmsvc80:sfdb_animation.obj
 0001:0002fd80       _sf_debug_sm_is_chart_active 10030d80 f   sfc_debugmsvc80:sfdb_animation.obj
 0001:0002fdc0       _sf_debug_sm_is_state_active 10030dc0 f   sfc_debugmsvc80:sfdb_animation.obj
 0001:0002ff70       _sf_debug_sm_get_active_states 10030f70 f   sfc_debugmsvc80:sfdb_animation.obj
 0001:000303a0       _sf_debug_sm_initialize_instance 100313a0 f   sfc_debugmsvc80:sfdb_animation.obj
 0001:000305c0       _sf_debug_sm_change_object_selection_status 100315c0 f   sfc_debugmsvc80:sfdb_animation.obj
 0001:000307b0       _cv_create_interface       100317b0 f   sfc_debugmsvc80:cv_sfinterface.obj
 0001:00030ac0       _cv_init_trans             10031ac0 f   sfc_debugmsvc80:cv_sfinterface.obj
 0001:00030b10       _cv_init_state             10031b10 f   sfc_debugmsvc80:cv_sfinterface.obj
 0001:00030b70       _cv_init_chart             10031b70 f   sfc_debugmsvc80:cv_sfinterface.obj
 0001:00030bc0       _cv_dec_update_call        10031bc0 f   sfc_debugmsvc80:cv_sfinterface.obj
 0001:00030c00       _cv_cond_update_call       10031c00 f   sfc_debugmsvc80:cv_sfinterface.obj
 0001:00030c40       _cv_sigrange_update        10031c40 f   sfc_debugmsvc80:cv_sfinterface.obj
 0001:00030c90       _cvsf_eml_eval             10031c90 f   sfc_debugmsvc80:cv_sfinterface.obj
 0001:00030d70       _cvsf_eml_init_script      10031d70 f   sfc_debugmsvc80:cv_sfinterface.obj
 0001:00030dd0       _cvsf_eml_init_fcn         10031dd0 f   sfc_debugmsvc80:cv_sfinterface.obj
 0001:00030e30       _cvsf_eml_init_testobjective 10031e30 f   sfc_debugmsvc80:cv_sfinterface.obj
 0001:00030e90       _cvsf_eml_init_if          10031e90 f   sfc_debugmsvc80:cv_sfinterface.obj
 0001:00030ef0       _cvsf_eml_init_for         10031ef0 f   sfc_debugmsvc80:cv_sfinterface.obj
 0001:00030f50       _cvsf_eml_init_while       10031f50 f   sfc_debugmsvc80:cv_sfinterface.obj
 0001:00030fc0       _cvsf_eml_init_mcdc        10031fc0 f   sfc_debugmsvc80:cv_sfinterface.obj
 0001:00031030       _cvsf_eml_init_switch      10032030 f   sfc_debugmsvc80:cv_sfinterface.obj
 0001:00031090       _cvsf_script_eval          10032090 f   sfc_debugmsvc80:cv_sfinterface.obj
 0001:00031170       _cvsf_script_init_script   10032170 f   sfc_debugmsvc80:cv_sfinterface.obj
 0001:000311d0       _cvsf_script_init_fcn      100321d0 f   sfc_debugmsvc80:cv_sfinterface.obj
 0001:00031230       _cvsf_script_init_testobjective 10032230 f   sfc_debugmsvc80:cv_sfinterface.obj
 0001:00031290       _cvsf_script_init_if       10032290 f   sfc_debugmsvc80:cv_sfinterface.obj
 0001:000312f0       _cvsf_script_init_for      100322f0 f   sfc_debugmsvc80:cv_sfinterface.obj
 0001:00031340       _cvsf_script_init_while    10032340 f   sfc_debugmsvc80:cv_sfinterface.obj
 0001:00031390       _cvsf_script_init_mcdc     10032390 f   sfc_debugmsvc80:cv_sfinterface.obj
 0001:00031400       _cvsf_script_init_switch   10032400 f   sfc_debugmsvc80:cv_sfinterface.obj
 0001:00031460       _cv_destroy_interface      10032460 f   sfc_debugmsvc80:cv_sfinterface.obj
 0001:00031480       _cv_create_instance_objects 10032480 f   sfc_debugmsvc80:cv_sfinterface.obj
 0001:000317c0       _cv_is_enabled             100327c0 f   sfc_debugmsvc80:cv_sfinterface.obj
 0001:000317d0       _sf_debug_cv_initialize_script 100327d0 f   sfc_debugmsvc80:cv_sfinterface.obj
 0001:00031960       _sf_debug_cv_initialize_instance 10032960 f   sfc_debugmsvc80:cv_sfinterface.obj
 0001:00031c60       _sf_debug_cv_terminate_chart 10032c60 f   sfc_debugmsvc80:cv_sfinterface.obj
 0001:00031d50       _cv_call_trans_test        10032d50 f   sfc_debugmsvc80:cv_sfinterface.obj
 0001:00031d60       _cv_call_sub_cond_test     10032d60 f   sfc_debugmsvc80:cv_sfinterface.obj
 0001:00031e70       _sf_debug_hm_initialize_instance 10032e70 f   sfc_debugmsvc80:sfdb_handle_management.obj
 0001:00032350       _sf_debug_hm_get_object_id 10033350 f   sfc_debugmsvc80:sfdb_handle_management.obj
 0001:00033e10       _sf_debug_object_is_eml_function 10034e10 f   sfc_debugmsvc80:sfdb_handle_management.obj
 0001:00033e70       _sf_debug_hm_initialize_ids_in_machine 10034e70 f   sfc_debugmsvc80:sfdb_handle_management.obj
 0001:00033fc0       _sf_debug_hm_initialize_ids_in_chart 10034fc0 f   sfc_debugmsvc80:sfdb_handle_management.obj
 0001:000340e0       _sf_debug_hm_initialize_chart 100350e0 f   sfc_debugmsvc80:sfdb_handle_management.obj
 0001:00034790       _sf_debug_hm_terminate     10035790 f   sfc_debugmsvc80:sfdb_handle_management.obj
 0001:000347f0       _sf_debug_hm_initialize_machine 100357f0 f   sfc_debugmsvc80:sfdb_handle_management.obj
 0001:00034eb0       _sf_debug_st_initialize_machine 10035eb0 f   sfc_debugmsvc80:sfdb_data_browse.obj
 0001:00034f60       _sf_debug_st_initialize_instance 10035f60 f   sfc_debugmsvc80:sfdb_data_browse.obj
 0001:00035120       _sf_debug_st_terminate     10036120 f   sfc_debugmsvc80:sfdb_data_browse.obj
 0001:00035280       _sf_debug_st_set_data_value_ptr_in_machine 10036280 f   sfc_debugmsvc80:sfdb_data_browse.obj
 0001:000352f0       _sf_debug_st_set_data_value_ptr_in_instance 100362f0 f   sfc_debugmsvc80:sfdb_data_browse.obj
 0001:000353a0       _sf_debug_st_unset_data_value_ptr_in_machine 100363a0 f   sfc_debugmsvc80:sfdb_data_browse.obj
 0001:00035400       _sf_debug_st_unset_data_value_ptr_in_instance 10036400 f   sfc_debugmsvc80:sfdb_data_browse.obj
 0001:00035710       _sf_debug_mx_value         10036710 f   sfc_debugmsvc80:sfdb_data_browse.obj
 0001:00035760       _sf_debug_mx_packed_vector 10036760 f   sfc_debugmsvc80:sfdb_data_browse.obj
 0001:00035800       _sf_debug_mx_uint_vector   10036800 f   sfc_debugmsvc80:sfdb_data_browse.obj
 0001:00035880       _sf_debug_st_get_double_value_from_void_ptr_vector 10036880 f   sfc_debugmsvc80:sfdb_data_browse.obj
 0001:00036080       _sf_debug_st_browse_data   10037080 f   sfc_debugmsvc80:sfdb_data_browse.obj
 0001:00036680       _sf_debug_ss_initialize    10037680 f   sfc_debugmsvc80:sfdb_symbol_scope.obj
 0001:000366a0       _sf_debug_ss_terminate     100376a0 f   sfc_debugmsvc80:sfdb_symbol_scope.obj
 0001:00036720       _sf_debug_ss_push_symbol_scope 10037720 f   sfc_debugmsvc80:sfdb_symbol_scope.obj
 0001:000367e0       _sf_debug_ss_push_symbol_scope_eml 100377e0 f   sfc_debugmsvc80:sfdb_symbol_scope.obj
 0001:00036830       _sf_debug_ss_pop_symbol_scope 10037830 f   sfc_debugmsvc80:sfdb_symbol_scope.obj
 0001:000368d0       _sf_debug_ss_add_symbol    100378d0 f   sfc_debugmsvc80:sfdb_symbol_scope.obj
 0001:000369c0       _sf_debug_ss_add_symbol_eml 100379c0 f   sfc_debugmsvc80:sfdb_symbol_scope.obj
 0001:000372e0       _sf_debug_ss_set_data_value 100382e0 f   sfc_debugmsvc80:sfdb_symbol_scope.obj
 0001:00037620       _sf_debug_ss_watch_data    10038620 f   sfc_debugmsvc80:sfdb_symbol_scope.obj
 0001:000376a0       _sf_debug_ss_assign_data   100386a0 f   sfc_debugmsvc80:sfdb_symbol_scope.obj
 0001:00037f40       _get_data_entry_name       10038f40 f   sfc_debugmsvc80:sfdb_symbol_scope.obj
 0001:00037f90       _sf_debug_ss_whos          10038f90 f   sfc_debugmsvc80:sfdb_symbol_scope.obj
 0001:00038430       _sf_debug_cc_initialize_chart 10039430 f   sfc_debugmsvc80:sfdb_coverage.obj
 0001:00038e00       _sf_debug_cc_initialize_instance 10039e00 f   sfc_debugmsvc80:sfdb_coverage.obj
 0001:00039a10       _sf_debug_cc_terminate     1003aa10 f   sfc_debugmsvc80:sfdb_coverage.obj
 0001:00039ae0       _sf_debug_cc_set_transition_maps 1003aae0 f   sfc_debugmsvc80:sfdb_coverage.obj
 0001:00039be0       _sf_debug_cc_set_state_maps 1003abe0 f   sfc_debugmsvc80:sfdb_coverage.obj
 0001:00039cb0       _sf_debug_cc_set_transition_weights 1003acb0 f   sfc_debugmsvc80:sfdb_coverage.obj
 0001:00039ed0       _sf_debug_cc_set_state_weights 1003aed0 f   sfc_debugmsvc80:sfdb_coverage.obj
 0001:0003a110       _sf_debug_cc_mark_transition_guard 1003b110 f   sfc_debugmsvc80:sfdb_coverage.obj
 0001:0003a190       _sf_debug_cc_mark_transition_trigger 1003b190 f   sfc_debugmsvc80:sfdb_coverage.obj
 0001:0003a210       _sf_debug_cc_mark_transition_decision 1003b210 f   sfc_debugmsvc80:sfdb_coverage.obj
 0001:0003a270       _sf_debug_cc_mark_transition_condition_action 1003b270 f   sfc_debugmsvc80:sfdb_coverage.obj
 0001:0003a2c0       _sf_debug_cc_mark_transition_transition_action 1003b2c0 f   sfc_debugmsvc80:sfdb_coverage.obj
 0001:0003a310       _sf_debug_cc_mark_state_entry 1003b310 f   sfc_debugmsvc80:sfdb_coverage.obj
 0001:0003a360       _sf_debug_cc_mark_state_during 1003b360 f   sfc_debugmsvc80:sfdb_coverage.obj
 0001:0003a3b0       _sf_debug_cc_mark_state_exit 1003b3b0 f   sfc_debugmsvc80:sfdb_coverage.obj
 0001:0003a9c0       _sf_debug_cc_get_coverage  1003b9c0 f   sfc_debugmsvc80:sfdb_coverage.obj
 0001:0003ae30       _sf_debug_bm_clear_script_breakpoints 1003be30 f   sfc_debugmsvc80:sfdb_breakpoints.obj
 0001:0003ae70       _sf_debug_bm_set_script_breakpoint 1003be70 f   sfc_debugmsvc80:sfdb_breakpoints.obj
 0001:0003aee0       _sf_debug_bm_clear_single_script_breakpoint 1003bee0 f   sfc_debugmsvc80:sfdb_breakpoints.obj
 0001:0003af50       _sf_debug_bm_query_script_breakpoint 1003bf50 f   sfc_debugmsvc80:sfdb_breakpoints.obj
 0001:0003afa0       _sf_debug_bm_initialize_scripts 1003bfa0 f   sfc_debugmsvc80:sfdb_breakpoints.obj
 0001:0003b540       _sf_debug_bm_terminate     1003c540 f   sfc_debugmsvc80:sfdb_breakpoints.obj
 0001:0003b800       _sf_debug_bm_remove_all_breakpoints_in_machine 1003c800 f   sfc_debugmsvc80:sfdb_breakpoints.obj
 0001:0003b850       _sf_debug_bm_remove_all_breakpoints_in_chart 1003c850 f   sfc_debugmsvc80:sfdb_breakpoints.obj
 0001:0003b980       _sf_debug_bm_initialize_global_breakpoints 1003c980 f   sfc_debugmsvc80:sfdb_breakpoints.obj
 0001:0003bb30       _sf_debug_bm_set_breakpoint 1003cb30 f   sfc_debugmsvc80:sfdb_breakpoints.obj
 0001:0003c090       _sf_debug_bm_set_eml_breakpoint 1003d090 f   sfc_debugmsvc80:sfdb_breakpoints.obj
 0001:0003c110       _sf_debug_bm_initialize_machine_breakpoint_map 1003d110 f   sfc_debugmsvc80:sfdb_breakpoints.obj
 0001:0003c4b0       _sf_debug_bm_is_a_breakpoint 1003d4b0 f   sfc_debugmsvc80:sfdb_breakpoints.obj
 0001:0003c8d0       _sf_debug_bm_get_all_breakpoints_in_machine 1003d8d0 f   sfc_debugmsvc80:sfdb_breakpoints.obj
 0001:0003cb70       _sf_debug_bm_get_all_breakpoints_in_chart 1003db70 f   sfc_debugmsvc80:sfdb_breakpoints.obj
 0001:0003d5a0       _sf_debug_bm_initialize_machine 1003e5a0 f   sfc_debugmsvc80:sfdb_breakpoints.obj
 0001:0003d640       _sf_debug_bm_initialize_chart 1003e640 f   sfc_debugmsvc80:sfdb_breakpoints.obj
 0001:0003d9d0       _sf_debug_sc_terminate     1003e9d0 f   sfc_debugmsvc80:sfdb_state_consistency.obj
 0001:0003dc50       _sf_debug_sc_is_chart_consistent 1003ec50 f   sfc_debugmsvc80:sfdb_state_consistency.obj
 0001:0003de30       _sf_debug_sc_get_consistency_error_info 1003ee30 f   sfc_debugmsvc80:sfdb_state_consistency.obj
 0001:0003e190       _sf_debug_tm_terminate     1003f190 f   sfc_debugmsvc80:sfdb_call_stack.obj
 0001:0003e230       _sf_debug_tm_push_chart_instance 1003f230 f   sfc_debugmsvc80:sfdb_call_stack.obj
 0001:0003e360       _sf_debug_tm_pop_chart_instance 1003f360 f   sfc_debugmsvc80:sfdb_call_stack.obj
 0001:0003e3c0       _sf_debug_tm_push_trace_node 1003f3c0 f   sfc_debugmsvc80:sfdb_call_stack.obj
 0001:0003e4d0       _sf_debug_tm_pop_trace_node 1003f4d0 f   sfc_debugmsvc80:sfdb_call_stack.obj
 0001:0003e550       _sf_debug_tm_get_current_global_trace_index 1003f550 f   sfc_debugmsvc80:sfdb_call_stack.obj
 0001:0003e570       _sf_debug_tm_get_current_local_trace_index 1003f570 f   sfc_debugmsvc80:sfdb_call_stack.obj
 0001:0003e5a0       _sf_debug_tm_set_cycle_detected_flag 1003f5a0 f   sfc_debugmsvc80:sfdb_call_stack.obj
 0001:0003e5f0       _sf_debug_tm_set_cycle_started_flag 1003f5f0 f   sfc_debugmsvc80:sfdb_call_stack.obj
 0001:0003e640       _sf_debug_tm_get_chart_number_from_stack 1003f640 f   sfc_debugmsvc80:sfdb_call_stack.obj
 0001:0003e7e0       _sf_debug_tm_browse_trace  1003f7e0 f   sfc_debugmsvc80:sfdb_call_stack.obj
 0001:0003ea50       _sf_debug_cd_initialize_instance 1003fa50 f   sfc_debugmsvc80:sfdb_cycle_detection.obj
 0001:0003ec80       _sf_debug_cd_mark_processed_transition_in_instance 1003fc80 f   sfc_debugmsvc80:sfdb_cycle_detection.obj
 0001:0003ed00       _sf_debug_cd_checksum_push 1003fd00 f   sfc_debugmsvc80:sfdb_cycle_detection.obj
 0001:0003f000       _sf_debug_cd_checksum_pop  10040000 f   sfc_debugmsvc80:sfdb_cycle_detection.obj
 0001:0003f060       _sf_debug_cd_turn_off_cycle_detection 10040060 f   sfc_debugmsvc80:sfdb_cycle_detection.obj
 0001:0003f0b0       _sf_debug_cd_terminate     100400b0 f   sfc_debugmsvc80:sfdb_cycle_detection.obj
 0001:0003f280       _md5_initialize_state      10040280 f   sfc_debugmsvc80:ckmd5.obj
 0001:0003fb10       _md5_update_state          10040b10 f   sfc_debugmsvc80:ckmd5.obj
 0001:0003fb30       _md5_get_hash              10040b30 f   sfc_debugmsvc80:ckmd5.obj
 0001:0003fb50       _md5_get_hash_for_a_single_string 10040b50 f   sfc_debugmsvc80:ckmd5.obj
 0001:0003fbba       _mxGetPr                   10040bba f   libmx:libmx.dll
 0001:0003fbc0       _mxCreateDoubleScalar      10040bc0 f   libmx:libmx.dll
 0001:0003fbc6       _mxSetField_730            10040bc6 f   libmx:libmx.dll
 0001:0003fbcc       _mxCreateDoubleMatrix_730  10040bcc f   libmx:libmx.dll
 0001:0003fbd2       _mxCreateStructMatrix_730  10040bd2 f   libmx:libmx.dll
 0001:0003fbd8       _mxDestroyArray            10040bd8 f   libmx:libmx.dll
 0001:0003fbde       _mxCreateString            10040bde f   libmx:libmx.dll
 0001:0003fbe4       _mxDuplicateArray          10040be4 f   libmx:libmx.dll
 0001:0003fbea       _mxGetNaN                  10040bea f   libmx:libmx.dll
 0001:0003fbf0       _mxGetString_730           10040bf0 f   libmx:libmx.dll
 0001:0003fbf6       _mxIsChar                  10040bf6 f   libmx:libmx.dll
 0001:0003fbfc       _mxGetClassID              10040bfc f   libmx:libmx.dll
 0001:0003fc02       _mxIsNumeric               10040c02 f   libmx:libmx.dll
 0001:0003fc08       _mxIsComplex               10040c08 f   libmx:libmx.dll
 0001:0003fc0e       _mxGetN                    10040c0e f   libmx:libmx.dll
 0001:0003fc14       _mxGetM                    10040c14 f   libmx:libmx.dll
 0001:0003fc1a       _mxCalloc                  10040c1a f   libmx:libmx.dll
 0001:0003fc20       _mxGetScalar               10040c20 f   libmx:libmx.dll
 0001:0003fc26       _mxIsLogical               10040c26 f   libmx:libmx.dll
 0001:0003fc2c       _mxCreateDoubleMatrix_700  10040c2c f   libmx:libmx.dll
 0001:0003fc32       _mxFree                    10040c32 f   libmx:libmx.dll
 0001:0003fc38       _mxArrayToString           10040c38 f   libmx:libmx.dll
 0001:0003fc3e       _mxCreateCellMatrix_700    10040c3e f   libmx:libmx.dll
 0001:0003fc44       _mxSetCell_700             10040c44 f   libmx:libmx.dll
 0001:0003fc4a       _mxGetCell_700             10040c4a f   libmx:libmx.dll
 0001:0003fc50       _mxGetClassName            10040c50 f   libmx:libmx.dll
 0001:0003fc56       _mxSetField_700            10040c56 f   libmx:libmx.dll
 0001:0003fc5c       _mxAddField                10040c5c f   libmx:libmx.dll
 0001:0003fc62       _mxGetField_700            10040c62 f   libmx:libmx.dll
 0001:0003fc68       _mxGetNumberOfElements     10040c68 f   libmx:libmx.dll
 0001:0003fc6e       _mxIsStruct                10040c6e f   libmx:libmx.dll
 0001:0003fc74       _mxIsClass                 10040c74 f   libmx:libmx.dll
 0001:0003fc7a       _mxGetLogicals             10040c7a f   libmx:libmx.dll
 0001:0003fc80       _mxIsSparse                10040c80 f   libmx:libmx.dll
 0001:0003fc86       _mxSetFieldByNumber_700    10040c86 f   libmx:libmx.dll
 0001:0003fc8c       _mxGetFieldByNumber_700    10040c8c f   libmx:libmx.dll
 0001:0003fc92       _mxGetFieldNameByNumber    10040c92 f   libmx:libmx.dll
 0001:0003fc98       _mxGetNumberOfFields       10040c98 f   libmx:libmx.dll
 0001:0003fc9e       _mxCreateStructMatrix_700  10040c9e f   libmx:libmx.dll
 0001:0003fca4       _mxGetFieldNumber          10040ca4 f   libmx:libmx.dll
 0001:0003fcaa       _mxIsNaN                   10040caa f   libmx:libmx.dll
 0001:0003fcb0       _mxIsEmpty                 10040cb0 f   libmx:libmx.dll
 0001:0003fcb6       _mxGetData                 10040cb6 f   libmx:libmx.dll
 0001:0003fcbc       _mxGetImagData             10040cbc f   libmx:libmx.dll
 0001:0003fcc2       _mxArrayClassIDName        10040cc2 f   libmx:libmx.dll
 0001:0003fcc8       _mxCreateNumericMatrix_700 10040cc8 f   libmx:libmx.dll
 0001:0003fcce       _mxCreateStructArray_700   10040cce f   libmx:libmx.dll
 0001:0003fcd4       _mxCalcSingleSubscript_700 10040cd4 f   libmx:libmx.dll
 0001:0003fcda       _mxGetDimensions_700       10040cda f   libmx:libmx.dll
 0001:0003fce0       _mxGetNumberOfDimensions_700 10040ce0 f   libmx:libmx.dll
 0001:0003fce6       _mxCreateNumericArray_700  10040ce6 f   libmx:libmx.dll
 0001:0003fcec       _mxGetElementSize          10040cec f   libmx:libmx.dll
 0001:0003fcf2       _mxCreateStringFromNChars_700 10040cf2 f   libmx:libmx.dll
 0001:0003fcf8       _mxGetString_700           10040cf8 f   libmx:libmx.dll
 0001:0003fcfe       _mxIsLogicalScalarTrue     10040cfe f   libmx:libmx.dll
 0001:0003fd04       _mxCreateLogicalScalar     10040d04 f   libmx:libmx.dll
 0001:0003fd0a       _mexUnlock                 10040d0a f   libmex:libmex.dll
 0001:0003fd10       _mexIsLocked               10040d10 f   libmex:libmex.dll
 0001:0003fd16       _mexWarnMsgTxt             10040d16 f   libmex:libmex.dll
 0001:0003fd1c       _mexCallMATLAB             10040d1c f   libmex:libmex.dll
 0001:0003fd22       _mexErrMsgTxt              10040d22 f   libmex:libmex.dll
 0001:0003fd28       _mexSetTrapFlag            10040d28 f   libmex:libmex.dll
 0001:0003fd2e       _mexMakeArrayPersistent    10040d2e f   libmex:libmex.dll
 0001:0003fd34       _mexPutVariable            10040d34 f   libmex:libmex.dll
 0001:0003fd3a       _mexGetVariable            10040d3a f   libmex:libmex.dll
 0001:0003fd40       _mexLock                   10040d40 f   libmex:libmex.dll
 0001:0003fd46       _mexMakeMemoryPersistent   10040d46 f   libmex:libmex.dll
 0001:0003fd4c       _mexFunctionName           10040d4c f   libmex:libmex.dll
 0001:0003fd52       _ssRegisterDataTypeFxpFSlopeFixExpBias 10040d52 f   libfixedpoint:libfixedpoint.dll
 0001:0003fd58       _utVSNprintf               10040d58 f   libut:libut.dll
 0001:0003fd5e       _utCPUtime                 10040d5e f   libut:libut.dll
 0001:0003fd64       _utFree                    10040d64 f   libut:libut.dll
 0001:0003fd6a       _utMalloc                  10040d6a f   libut:libut.dll
 0001:0003fd70       _muDoubleScalarSin         10040d70 f   libmwmathutil:libmwmathutil.dll
 0001:0003fd76       _muDoubleScalarCos         10040d76 f   libmwmathutil:libmwmathutil.dll
 0001:0003fd7c       _muDoubleScalarAtan2       10040d7c f   libmwmathutil:libmwmathutil.dll
 0001:0003fd82       _muDoubleScalarPower       10040d82 f   libmwmathutil:libmwmathutil.dll
 0001:0003fd88       _muDoubleScalarFloor       10040d88 f   libmwmathutil:libmwmathutil.dll
 0001:0003fd8e       _muDoubleScalarIsNaN       10040d8e f   libmwmathutil:libmwmathutil.dll
 0001:0003fd94       _muDoubleScalarAbs         10040d94 f   libmwmathutil:libmwmathutil.dll
 0001:0003fd9a       _muDoubleScalarSqrt        10040d9a f   libmwmathutil:libmwmathutil.dll
 0001:0003fda0       _emlrtCheckBuiltInCtxR2011a 10040da0 f   libemlrt:libemlrt.dll
 0001:0003fda6       _emlrtCheckVsBuiltInCtxR2011a 10040da6 f   libemlrt:libemlrt.dll
 0001:0003fdac       _emlrtCheckEnumR2009a      10040dac f   libemlrt:libemlrt.dll
 0001:0003fdb2       _emlrtCreateEnumR2010a     10040db2 f   libemlrt:libemlrt.dll
 0001:0003fdb8       _emlrtGetEnumElementR2009a 10040db8 f   libemlrt:libemlrt.dll
 0001:0003fdbe       _emlrtCreateReference      10040dbe f   libemlrt:libemlrt.dll
 0001:0003fdc4       _emlrtImportVsFiArrayR2009b 10040dc4 f   libemlrt:libemlrt.dll
 0001:0003fdca       _emlrtExtractMessageId     10040dca f   libemlrt:libemlrt.dll
 0001:0003fdd0       _emlrtTranslateMessageIDtoLCPstring 10040dd0 f   libemlrt:libemlrt.dll
 0001:0003fdd6       _emlrtGetEnumUnderlyingArrayR2009a 10040dd6 f   libemlrt:libemlrt.dll
 0001:0003fddc       _emlrtIsEnumR2009a         10040ddc f   libemlrt:libemlrt.dll
 0001:0003fde2       _idamax32                  10040de2 f   libmwblascompat32:libmwblascompat32.dll
 0001:0003fde8       _dswap32                   10040de8 f   libmwblascompat32:libmwblascompat32.dll
 0001:0003fdee       _dger32                    10040dee f   libmwblascompat32:libmwblascompat32.dll
 0001:0003fe00       @__security_check_cookie@4 10040e00 f   MSVCRT:secchk.obj
 0001:0003fe10       _memset                    10040e10 f   MSVCRT:MSVCR100.dll
 0001:0003fe16       _malloc                    10040e16 f   MSVCRT:MSVCR100.dll
 0001:0003fe1c       _free                      10040e1c f   MSVCRT:MSVCR100.dll
 0001:0003fe22       _strlen                    10040e22 f   MSVCRT:MSVCR100.dll
 0001:0003fe30       __chkstk                   10040e30 f   MSVCRT:chkstk.obj
 0001:0003fe30       __alloca_probe             10040e30     MSVCRT:chkstk.obj
 0001:0003fe60       __ftol2_sse                10040e60 f   MSVCRT:ftol2.obj
 0001:0003fe69       __ftol2_pentium4           10040e69 f   MSVCRT:ftol2.obj
 0001:0003fe7c       __ftol2_sse_excpt          10040e7c f   MSVCRT:ftol2.obj
 0001:0003fe96       __ftol2                    10040e96 f   MSVCRT:ftol2.obj
 0001:0003ff0c       _strcmp                    10040f0c f   MSVCRT:MSVCR100.dll
 0001:0003ff12       _sprintf                   10040f12 f   MSVCRT:MSVCR100.dll
 0001:0003ff18       _strcat                    10040f18 f   MSVCRT:MSVCR100.dll
 0001:0003ff1e       _memcpy                    10040f1e f   MSVCRT:MSVCR100.dll
 0001:0003ff24       _NtCurrentTeb              10040f24 f i MSVCRT:crtdll.obj
 0001:0003ff79       __CRT_INIT@12              10040f79 f   MSVCRT:crtdll.obj
 0001:00040299       __DllMainCRTStartup@12     10041299 f   MSVCRT:crtdll.obj
 0001:000402bc       _strncpy                   100412bc f   MSVCRT:MSVCR100.dll
 0001:000402c2       _longjmp                   100412c2 f   MSVCRT:MSVCR100.dll
 0001:000402c8       _strncmp                   100412c8 f   MSVCRT:MSVCR100.dll
 0001:000402ce       _ceil                      100412ce f   MSVCRT:MSVCR100.dll
 0001:000402d4       _strrchr                   100412d4 f   MSVCRT:MSVCR100.dll
 0001:000402da       __setjmp3                  100412da f   MSVCRT:MSVCR100.dll
 0001:000402e0       _calloc                    100412e0 f   MSVCRT:MSVCR100.dll
 0001:000402e6       _realloc                   100412e6 f   MSVCRT:MSVCR100.dll
 0001:000402ec       _ldexp                     100412ec f   MSVCRT:MSVCR100.dll
 0001:000402f2       ___report_gsfailure        100412f2 f   MSVCRT:gs_report.obj
 0001:000403f8       ___sse2_available_init     100413f8 f   MSVCRT:cpu_disp.obj
 0001:00040408       ___clean_type_info_names   10041408 f   MSVCRT:tncleanup.obj
 0001:00040414       __onexit                   10041414 f   MSVCRT:atonexit.obj
 0001:000404b5       _atexit                    100414b5 f   MSVCRT:atonexit.obj
 0001:000404cc       __RTC_Initialize           100414cc f   MSVCRT:_initsect_.obj
 0001:000404f2       __RTC_Terminate            100414f2 f   MSVCRT:_initsect_.obj
 0001:00040518       __malloc_crt               10041518 f   MSVCRT:MSVCR100.dll
 0001:0004051e       __encoded_null             1004151e f   MSVCRT:MSVCR100.dll
 0001:00040530       __ValidateImageBase        10041530 f   MSVCRT:pesect.obj
 0001:00040570       __FindPESection            10041570 f   MSVCRT:pesect.obj
 0001:000405c0       __IsNonwritableInCurrentImage 100415c0 f   MSVCRT:pesect.obj
 0001:0004067c       __initterm                 1004167c f   MSVCRT:MSVCR100.dll
 0001:00040682       __initterm_e               10041682 f   MSVCRT:MSVCR100.dll
 0001:00040688       __amsg_exit                10041688 f   MSVCRT:MSVCR100.dll
 0001:0004068e       ___CppXcptFilter           1004168e f   MSVCRT:MSVCR100.dll
 0001:00040694       _DllMain@12                10041694 f   MSVCRT:dllmain.obj
 0001:000406c0       __SEH_prolog4              100416c0 f   MSVCRT:sehprolg4.obj
 0001:00040705       __SEH_epilog4              10041705 f   MSVCRT:sehprolg4.obj
 0001:00040719       __except_handler4          10041719 f   MSVCRT:chandler4gs.obj
 0001:0004073e       ___security_init_cookie    1004173e f   MSVCRT:gs_support.obj
 0001:000407da       __crt_debugger_hook        100417da f   MSVCRT:MSVCR100.dll
 0001:000407e0       ___clean_type_info_names_internal 100417e0 f   MSVCRT:MSVCR100.dll
 0001:000407e6       __unlock                   100417e6 f   MSVCRT:MSVCR100.dll
 0001:000407ec       ___dllonexit               100417ec f   MSVCRT:MSVCR100.dll
 0001:000407f2       __lock                     100417f2 f   MSVCRT:MSVCR100.dll
 0001:000407f8       __except_handler4_common   100417f8 f   MSVCRT:MSVCR100.dll
 0001:000407fe       _EncodePointer@4           100417fe f   kernel32:KERNEL32.dll
 0001:00040804       _DecodePointer@4           10041804 f   kernel32:KERNEL32.dll
 0001:0004080a       _InterlockedExchange@8     1004180a f   kernel32:KERNEL32.dll
 0001:00040810       _Sleep@4                   10041810 f   kernel32:KERNEL32.dll
 0001:00040816       _InterlockedCompareExchange@12 10041816 f   kernel32:KERNEL32.dll
 0001:0004081c       _TerminateProcess@8        1004181c f   kernel32:KERNEL32.dll
 0001:00040822       _GetCurrentProcess@0       10041822 f   kernel32:KERNEL32.dll
 0001:00040828       _UnhandledExceptionFilter@4 10041828 f   kernel32:KERNEL32.dll
 0001:0004082e       _SetUnhandledExceptionFilter@4 1004182e f   kernel32:KERNEL32.dll
 0001:00040834       _IsDebuggerPresent@0       10041834 f   kernel32:KERNEL32.dll
 0001:0004083a       _IsProcessorFeaturePresent@4 1004183a f   kernel32:KERNEL32.dll
 0001:00040840       _DisableThreadLibraryCalls@4 10041840 f   kernel32:KERNEL32.dll
 0001:00040846       _QueryPerformanceCounter@4 10041846 f   kernel32:KERNEL32.dll
 0001:0004084c       _GetTickCount@0            1004184c f   kernel32:KERNEL32.dll
 0001:00040852       _GetCurrentThreadId@0      10041852 f   kernel32:KERNEL32.dll
 0001:00040858       _GetCurrentProcessId@0     10041858 f   kernel32:KERNEL32.dll
 0001:0004085e       _GetSystemTimeAsFileTime@4 1004185e f   kernel32:KERNEL32.dll
 0002:00000000       __imp__DisableThreadLibraryCalls@4 10042000     kernel32:KERNEL32.dll
 0002:00000004       __imp__IsProcessorFeaturePresent@4 10042004     kernel32:KERNEL32.dll
 0002:00000008       __imp__IsDebuggerPresent@0 10042008     kernel32:KERNEL32.dll
 0002:0000000c       __imp__SetUnhandledExceptionFilter@4 1004200c     kernel32:KERNEL32.dll
 0002:00000010       __imp__UnhandledExceptionFilter@4 10042010     kernel32:KERNEL32.dll
 0002:00000014       __imp__GetCurrentProcess@0 10042014     kernel32:KERNEL32.dll
 0002:00000018       __imp__TerminateProcess@8  10042018     kernel32:KERNEL32.dll
 0002:0000001c       __imp__InterlockedCompareExchange@12 1004201c     kernel32:KERNEL32.dll
 0002:00000020       __imp__Sleep@4             10042020     kernel32:KERNEL32.dll
 0002:00000024       __imp__InterlockedExchange@8 10042024     kernel32:KERNEL32.dll
 0002:00000028       __imp__DecodePointer@4     10042028     kernel32:KERNEL32.dll
 0002:0000002c       __imp__EncodePointer@4     1004202c     kernel32:KERNEL32.dll
 0002:00000030       __imp__GetTickCount@0      10042030     kernel32:KERNEL32.dll
 0002:00000034       __imp__GetCurrentThreadId@0 10042034     kernel32:KERNEL32.dll
 0002:00000038       __imp__GetCurrentProcessId@0 10042038     kernel32:KERNEL32.dll
 0002:0000003c       __imp__GetSystemTimeAsFileTime@4 1004203c     kernel32:KERNEL32.dll
 0002:00000040       __imp__QueryPerformanceCounter@4 10042040     kernel32:KERNEL32.dll
 0002:00000044       \177KERNEL32_NULL_THUNK_DATA 10042044     kernel32:KERNEL32.dll
 0002:00000048       __imp___except_handler4_common 10042048     MSVCRT:MSVCR100.dll
 0002:0000004c       __imp___onexit             1004204c     MSVCRT:MSVCR100.dll
 0002:00000050       __imp___lock               10042050     MSVCRT:MSVCR100.dll
 0002:00000054       __imp____dllonexit         10042054     MSVCRT:MSVCR100.dll
 0002:00000058       __imp___unlock             10042058     MSVCRT:MSVCR100.dll
 0002:0000005c       __imp____clean_type_info_names_internal 1004205c     MSVCRT:MSVCR100.dll
 0002:00000060       __imp___crt_debugger_hook  10042060     MSVCRT:MSVCR100.dll
 0002:00000064       __imp____CppXcptFilter     10042064     MSVCRT:MSVCR100.dll
 0002:00000068       __imp___amsg_exit          10042068     MSVCRT:MSVCR100.dll
 0002:0000006c       __imp___initterm_e         1004206c     MSVCRT:MSVCR100.dll
 0002:00000070       __imp___initterm           10042070     MSVCRT:MSVCR100.dll
 0002:00000074       __imp___encoded_null       10042074     MSVCRT:MSVCR100.dll
 0002:00000078       __imp___malloc_crt         10042078     MSVCRT:MSVCR100.dll
 0002:0000007c       __imp__ldexp               1004207c     MSVCRT:MSVCR100.dll
 0002:00000080       __imp__realloc             10042080     MSVCRT:MSVCR100.dll
 0002:00000084       __imp__calloc              10042084     MSVCRT:MSVCR100.dll
 0002:00000088       __imp___setjmp3            10042088     MSVCRT:MSVCR100.dll
 0002:0000008c       __imp__strrchr             1004208c     MSVCRT:MSVCR100.dll
 0002:00000090       __imp__ceil                10042090     MSVCRT:MSVCR100.dll
 0002:00000094       __imp__strncmp             10042094     MSVCRT:MSVCR100.dll
 0002:00000098       __imp__longjmp             10042098     MSVCRT:MSVCR100.dll
 0002:0000009c       __imp__strncpy             1004209c     MSVCRT:MSVCR100.dll
 0002:000000a0       __imp__memcpy              100420a0     MSVCRT:MSVCR100.dll
 0002:000000a4       __imp__strcat              100420a4     MSVCRT:MSVCR100.dll
 0002:000000a8       __imp__sprintf             100420a8     MSVCRT:MSVCR100.dll
 0002:000000ac       __imp__strcmp              100420ac     MSVCRT:MSVCR100.dll
 0002:000000b0       __imp__strlen              100420b0     MSVCRT:MSVCR100.dll
 0002:000000b4       __imp__free                100420b4     MSVCRT:MSVCR100.dll
 0002:000000b8       __imp__malloc              100420b8     MSVCRT:MSVCR100.dll
 0002:000000bc       __imp__memset              100420bc     MSVCRT:MSVCR100.dll
 0002:000000c0       \177MSVCR100_NULL_THUNK_DATA 100420c0     MSVCRT:MSVCR100.dll
 0002:000000c4       __imp__emlrtCheckVsBuiltInCtxR2011a 100420c4     libemlrt:libemlrt.dll
 0002:000000c8       __imp__emlrtCheckBuiltInCtxR2011a 100420c8     libemlrt:libemlrt.dll
 0002:000000cc       __imp__emlrtCreateEnumR2010a 100420cc     libemlrt:libemlrt.dll
 0002:000000d0       __imp__emlrtGetEnumElementR2009a 100420d0     libemlrt:libemlrt.dll
 0002:000000d4       __imp__emlrtIsEnumR2009a   100420d4     libemlrt:libemlrt.dll
 0002:000000d8       __imp__emlrtGetEnumUnderlyingArrayR2009a 100420d8     libemlrt:libemlrt.dll
 0002:000000dc       __imp__emlrtTranslateMessageIDtoLCPstring 100420dc     libemlrt:libemlrt.dll
 0002:000000e0       __imp__emlrtCreateReference 100420e0     libemlrt:libemlrt.dll
 0002:000000e4       __imp__emlrtImportVsFiArrayR2009b 100420e4     libemlrt:libemlrt.dll
 0002:000000e8       __imp__emlrtExtractMessageId 100420e8     libemlrt:libemlrt.dll
 0002:000000ec       __imp__emlrtCheckEnumR2009a 100420ec     libemlrt:libemlrt.dll
 0002:000000f0       \177libemlrt_NULL_THUNK_DATA 100420f0     libemlrt:libemlrt.dll
 0002:000000f4       __imp__ssRegisterDataTypeFxpFSlopeFixExpBias 100420f4     libfixedpoint:libfixedpoint.dll
 0002:000000f8       \177libfixedpoint_NULL_THUNK_DATA 100420f8     libfixedpoint:libfixedpoint.dll
 0002:000000fc       __imp__mexMakeArrayPersistent 100420fc     libmex:libmex.dll
 0002:00000100       __imp__mexPutVariable      10042100     libmex:libmex.dll
 0002:00000104       __imp__mexGetVariable      10042104     libmex:libmex.dll
 0002:00000108       __imp__mexSetTrapFlag      10042108     libmex:libmex.dll
 0002:0000010c       __imp__mexMakeMemoryPersistent 1004210c     libmex:libmex.dll
 0002:00000110       __imp__mexFunctionName     10042110     libmex:libmex.dll
 0002:00000114       __imp__mexErrMsgTxt        10042114     libmex:libmex.dll
 0002:00000118       __imp__mexLock             10042118     libmex:libmex.dll
 0002:0000011c       __imp__mexWarnMsgTxt       1004211c     libmex:libmex.dll
 0002:00000120       __imp__mexIsLocked         10042120     libmex:libmex.dll
 0002:00000124       __imp__mexUnlock           10042124     libmex:libmex.dll
 0002:00000128       __imp__mexCallMATLAB       10042128     libmex:libmex.dll
 0002:0000012c       \177libmex_NULL_THUNK_DATA 1004212c     libmex:libmex.dll
 0002:00000130       __imp__dswap32             10042130     libmwblascompat32:libmwblascompat32.dll
 0002:00000134       __imp__dger32              10042134     libmwblascompat32:libmwblascompat32.dll
 0002:00000138       __imp__idamax32            10042138     libmwblascompat32:libmwblascompat32.dll
 0002:0000013c       \177libmwblascompat32_NULL_THUNK_DATA 1004213c     libmwblascompat32:libmwblascompat32.dll
 0002:00000140       __imp__muDoubleScalarPower 10042140     libmwmathutil:libmwmathutil.dll
 0002:00000144       __imp__muDoubleScalarFloor 10042144     libmwmathutil:libmwmathutil.dll
 0002:00000148       __imp__muDoubleScalarAtan2 10042148     libmwmathutil:libmwmathutil.dll
 0002:0000014c       __imp__muDoubleScalarAbs   1004214c     libmwmathutil:libmwmathutil.dll
 0002:00000150       __imp__muDoubleScalarSqrt  10042150     libmwmathutil:libmwmathutil.dll
 0002:00000154       __imp__muDoubleScalarCos   10042154     libmwmathutil:libmwmathutil.dll
 0002:00000158       __imp__muDoubleScalarSin   10042158     libmwmathutil:libmwmathutil.dll
 0002:0000015c       __imp__muDoubleScalarIsNaN 1004215c     libmwmathutil:libmwmathutil.dll
 0002:00000160       \177libmwmathutil_NULL_THUNK_DATA 10042160     libmwmathutil:libmwmathutil.dll
 0002:00000164       __imp__mxIsComplex         10042164     libmx:libmx.dll
 0002:00000168       __imp__mxGetPr             10042168     libmx:libmx.dll
 0002:0000016c       __imp__mxGetN              1004216c     libmx:libmx.dll
 0002:00000170       __imp__mxGetM              10042170     libmx:libmx.dll
 0002:00000174       __imp__mxCalloc            10042174     libmx:libmx.dll
 0002:00000178       __imp__mxCreateLogicalScalar 10042178     libmx:libmx.dll
 0002:0000017c       __imp__mxIsLogicalScalarTrue 1004217c     libmx:libmx.dll
 0002:00000180       __imp__mxGetString_700     10042180     libmx:libmx.dll
 0002:00000184       __imp__mxCreateStringFromNChars_700 10042184     libmx:libmx.dll
 0002:00000188       __imp__mxGetElementSize    10042188     libmx:libmx.dll
 0002:0000018c       __imp__mxCreateNumericArray_700 1004218c     libmx:libmx.dll
 0002:00000190       __imp__mxGetNumberOfDimensions_700 10042190     libmx:libmx.dll
 0002:00000194       __imp__mxGetDimensions_700 10042194     libmx:libmx.dll
 0002:00000198       __imp__mxCalcSingleSubscript_700 10042198     libmx:libmx.dll
 0002:0000019c       __imp__mxCreateStructArray_700 1004219c     libmx:libmx.dll
 0002:000001a0       __imp__mxCreateNumericMatrix_700 100421a0     libmx:libmx.dll
 0002:000001a4       __imp__mxArrayClassIDName  100421a4     libmx:libmx.dll
 0002:000001a8       __imp__mxGetImagData       100421a8     libmx:libmx.dll
 0002:000001ac       __imp__mxGetData           100421ac     libmx:libmx.dll
 0002:000001b0       __imp__mxIsEmpty           100421b0     libmx:libmx.dll
 0002:000001b4       __imp__mxIsNaN             100421b4     libmx:libmx.dll
 0002:000001b8       __imp__mxGetFieldNumber    100421b8     libmx:libmx.dll
 0002:000001bc       __imp__mxCreateStructMatrix_700 100421bc     libmx:libmx.dll
 0002:000001c0       __imp__mxGetNumberOfFields 100421c0     libmx:libmx.dll
 0002:000001c4       __imp__mxGetFieldNameByNumber 100421c4     libmx:libmx.dll
 0002:000001c8       __imp__mxGetFieldByNumber_700 100421c8     libmx:libmx.dll
 0002:000001cc       __imp__mxSetFieldByNumber_700 100421cc     libmx:libmx.dll
 0002:000001d0       __imp__mxIsSparse          100421d0     libmx:libmx.dll
 0002:000001d4       __imp__mxGetLogicals       100421d4     libmx:libmx.dll
 0002:000001d8       __imp__mxIsClass           100421d8     libmx:libmx.dll
 0002:000001dc       __imp__mxIsStruct          100421dc     libmx:libmx.dll
 0002:000001e0       __imp__mxGetNumberOfElements 100421e0     libmx:libmx.dll
 0002:000001e4       __imp__mxGetField_700      100421e4     libmx:libmx.dll
 0002:000001e8       __imp__mxAddField          100421e8     libmx:libmx.dll
 0002:000001ec       __imp__mxSetField_700      100421ec     libmx:libmx.dll
 0002:000001f0       __imp__mxGetClassName      100421f0     libmx:libmx.dll
 0002:000001f4       __imp__mxGetCell_700       100421f4     libmx:libmx.dll
 0002:000001f8       __imp__mxSetCell_700       100421f8     libmx:libmx.dll
 0002:000001fc       __imp__mxCreateCellMatrix_700 100421fc     libmx:libmx.dll
 0002:00000200       __imp__mxArrayToString     10042200     libmx:libmx.dll
 0002:00000204       __imp__mxFree              10042204     libmx:libmx.dll
 0002:00000208       __imp__mxCreateDoubleMatrix_700 10042208     libmx:libmx.dll
 0002:0000020c       __imp__mxIsLogical         1004220c     libmx:libmx.dll
 0002:00000210       __imp__mxIsNumeric         10042210     libmx:libmx.dll
 0002:00000214       __imp__mxGetClassID        10042214     libmx:libmx.dll
 0002:00000218       __imp__mxIsChar            10042218     libmx:libmx.dll
 0002:0000021c       __imp__mxGetString_730     1004221c     libmx:libmx.dll
 0002:00000220       __imp__mxGetNaN            10042220     libmx:libmx.dll
 0002:00000224       __imp__mxDuplicateArray    10042224     libmx:libmx.dll
 0002:00000228       __imp__mxCreateString      10042228     libmx:libmx.dll
 0002:0000022c       __imp__mxDestroyArray      1004222c     libmx:libmx.dll
 0002:00000230       __imp__mxCreateStructMatrix_730 10042230     libmx:libmx.dll
 0002:00000234       __imp__mxCreateDoubleMatrix_730 10042234     libmx:libmx.dll
 0002:00000238       __imp__mxSetField_730      10042238     libmx:libmx.dll
 0002:0000023c       __imp__mxCreateDoubleScalar 1004223c     libmx:libmx.dll
 0002:00000240       __imp__mxGetScalar         10042240     libmx:libmx.dll
 0002:00000244       \177libmx_NULL_THUNK_DATA  10042244     libmx:libmx.dll
 0002:00000248       __imp__utFree              10042248     libut:libut.dll
 0002:0000024c       __imp__utCPUtime           1004224c     libut:libut.dll
 0002:00000250       __imp__utVSNprintf         10042250     libut:libut.dll
 0002:00000254       __imp__utMalloc            10042254     libut:libut.dll
 0002:00000258       \177libut_NULL_THUNK_DATA  10042258     libut:libut.dll
 0002:0000025c       ___xc_a                    1004225c     MSVCRT:cinitexe.obj
 0002:00000260       ___xc_z                    10042260     MSVCRT:cinitexe.obj
 0002:00000264       ___xi_a                    10042264     MSVCRT:cinitexe.obj
 0002:00000270       ___xi_z                    10042270     MSVCRT:cinitexe.obj
 0002:00000278       __real@41b71fff80000000    10042278     c1_Cinematica_JA_reducido.obj
 0002:00000280       __real@41bd90fbdd000000    10042280     c1_Cinematica_JA_reducido.obj
 0002:00000288       __real@41c8683118000000    10042288     c1_Cinematica_JA_reducido.obj
 0002:00000290       __real@41a8dc1be4000000    10042290     c1_Cinematica_JA_reducido.obj
 0002:00000298       __real@4008000000000000    10042298     c1_Cinematica_JA_reducido.obj
 0002:000002a0       __real@0000000000000000    100422a0     c1_Cinematica_JA_reducido.obj
 0002:000002a8       __real@4024000000000000    100422a8     c1_Cinematica_JA_reducido.obj
 0002:000002b0       __real@3ff0000000000000    100422b0     c1_Cinematica_JA_reducido.obj
 0002:000002b8       __real@4010000000000000    100422b8     c1_Cinematica_JA_reducido.obj
 0002:000002c0       __real@41d6b05adf800000    100422c0     c1_Cinematica_JA_reducido.obj
 0002:000002c8       __real@41891b28f0000000    100422c8     c1_Cinematica_JA_reducido.obj
 0002:000002d0       __real@41e7e5504e000000    100422d0     c1_Cinematica_JA_reducido.obj
 0002:000002d8       __real@41e68d9810200000    100422d8     c1_Cinematica_JA_reducido.obj
 0002:000002e0       __real@419d7da2ec000000    100422e0     c2_Cinematica_JA_reducido.obj
 0002:000002e8       __real@41dd3bfcb4000000    100422e8     c2_Cinematica_JA_reducido.obj
 0002:000002f0       __real@41e904aac4800000    100422f0     c2_Cinematica_JA_reducido.obj
 0002:000002f8       __real@41efc2a76a800000    100422f8     c2_Cinematica_JA_reducido.obj
 0002:00000300       __real@41edb87285c00000    10042300     c2_Cinematica_JA_reducido.obj
 0002:00000308       __real@41e4aeaf85800000    10042308     c2_Cinematica_JA_reducido.obj
 0002:00000310       __real@41d6e99a92c00000    10042310     c2_Cinematica_JA_reducido.obj
 0002:00000318       __real@41c8e74f25800000    10042318     c2_Cinematica_JA_reducido.obj
 0002:00000320       __real@bfec5bc01a36e2eb    10042320     c2_Cinematica_JA_reducido.obj
 0002:00000328       __real@400316f0068db8bb    10042328     c2_Cinematica_JA_reducido.obj
 0002:00000330       __real@3ff8000000000000    10042330     c2_Cinematica_JA_reducido.obj
 0002:00000338       __real@3fec5bc01a36e2eb    10042338     c2_Cinematica_JA_reducido.obj
 0002:00000340       __real@3fefb3d07c84b5dd    10042340     c2_Cinematica_JA_reducido.obj
 0002:00000348       __real@3ff3417ebaf10236    10042348     c2_Cinematica_JA_reducido.obj
 0002:00000350       __real@4000000000000000    10042350     c2_Cinematica_JA_reducido.obj
 0002:00000358       __real@4018000000000000    10042358     c2_Cinematica_JA_reducido.obj
 0002:00000360       __real@402c000000000000    10042360     c2_Cinematica_JA_reducido.obj
 0002:00000368       __real@3cb0000000000000    10042368     c2_Cinematica_JA_reducido.obj
 0002:00000370       __real@bff0000000000000    10042370     c2_Cinematica_JA_reducido.obj
 0002:00000378       __real@41dd649a4b400000    10042378     c3_Cinematica_JA_reducido.obj
 0002:00000380       __real@41e120a66c600000    10042380     c3_Cinematica_JA_reducido.obj
 0002:00000388       __real@41ec09c391600000    10042388     c3_Cinematica_JA_reducido.obj
 0002:00000390       __real@4197b88ab8000000    10042390     c3_Cinematica_JA_reducido.obj
 0002:00000398       __real@41e1e9b65a800000    10042398     c3_Cinematica_JA_reducido.obj
 0002:000003a0       __real@41d4e108f7000000    100423a0     c3_Cinematica_JA_reducido.obj
 0002:000003a8       __real@41e25b9c3e800000    100423a8     c3_Cinematica_JA_reducido.obj
 0002:000003b0       __real@41d4ff4851c00000    100423b0     c3_Cinematica_JA_reducido.obj
 0002:000003b8       __real@41e2440893000000    100423b8     c4_Cinematica_JA_reducido.obj
 0002:000003c0       __real@41e8ec8182600000    100423c0     c4_Cinematica_JA_reducido.obj
 0002:000003c8       __real@41e74a7735800000    100423c8     c4_Cinematica_JA_reducido.obj
 0002:000003d0       __real@41c8d41908800000    100423d0     c4_Cinematica_JA_reducido.obj
 0002:000003d8       __real@418ce72c30000000    100423d8     c4_Cinematica_JA_reducido.obj
 0002:000003e0       __real@41e3a4c68c600000    100423e0     c4_Cinematica_JA_reducido.obj
 0002:000003e8       __real@41a6ae4a24000000    100423e8     c4_Cinematica_JA_reducido.obj
 0002:000003f0       __real@41e5db40d2400000    100423f0     c4_Cinematica_JA_reducido.obj
 0002:000003f8       __real@41e9f7e6d7c00000    100423f8     c5_Cinematica_JA_reducido.obj
 0002:00000400       __real@41de3f4a96400000    10042400     c5_Cinematica_JA_reducido.obj
 0002:00000408       __real@41d2cc7b9c800000    10042408     c5_Cinematica_JA_reducido.obj
 0002:00000410       __real@41d59ce1a8800000    10042410     c5_Cinematica_JA_reducido.obj
 0002:00000418       __real@41e9f682ccc00000    10042418     c5_Cinematica_JA_reducido.obj
 0002:00000420       __real@41ebb5983b200000    10042420     c5_Cinematica_JA_reducido.obj
 0002:00000428       __real@41e4fc762c400000    10042428     c5_Cinematica_JA_reducido.obj
 0002:00000430       __real@41ee341c5e600000    10042430     c5_Cinematica_JA_reducido.obj
 0002:00000438       __real@41df015b4c400000    10042438     c6_Cinematica_JA_reducido.obj
 0002:00000440       __real@41e57a61f4800000    10042440     c6_Cinematica_JA_reducido.obj
 0002:00000448       __real@41e7e88761400000    10042448     c6_Cinematica_JA_reducido.obj
 0002:00000450       __real@41b983edf0000000    10042450     c6_Cinematica_JA_reducido.obj
 0002:00000458       __real@41b535b22a000000    10042458     c6_Cinematica_JA_reducido.obj
 0002:00000460       __real@41c97ab79e800000    10042460     c6_Cinematica_JA_reducido.obj
 0002:00000468       __real@41edd026b5400000    10042468     c6_Cinematica_JA_reducido.obj
 0002:00000470       __real@41b9fc550b000000    10042470     c6_Cinematica_JA_reducido.obj
 0002:00000478       _DYNAMIC_DIMENSION_DEF     10042478     Cinematica_JA_reducido_sfun_registry.obj
 0002:00000488       __ssBadLevel2InputAccessMsg 10042488     Cinematica_JA_reducido_sfun_registry.obj
 0002:00000610       __ssBadLevel2DirectFeedMsg 10042610     Cinematica_JA_reducido_sfun_registry.obj
 0002:00000750       __ssBadLevel2DirectFeedSolutionMsg 10042750     Cinematica_JA_reducido_sfun_registry.obj
 0002:000007c0       __ssBadLevel2ZeroDirectFeedMsg 100427c0     Cinematica_JA_reducido_sfun_registry.obj
 0002:00000900       __ssBadLevel2ZeroDirectFeedMsg2 10042900     Cinematica_JA_reducido_sfun_registry.obj
 0002:000009e8       __real@4153d65940000000    100429e8     Cinematica_JA_reducido_sfun_registry.obj
 0002:000009f0       __real@41b9655ea7000000    100429f0     Cinematica_JA_reducido_sfun.obj
 0002:000009f8       __real@41c0eb97df800000    100429f8     Cinematica_JA_reducido_sfun.obj
 0002:00000a00       __real@41e3f8fa71a00000    10042a00     Cinematica_JA_reducido_sfun.obj
 0002:00000a08       __real@41edd39900200000    10042a08     Cinematica_JA_reducido_sfun.obj
 0002:00000a10       __real@41dc1302e4800000    10042a10     Cinematica_JA_reducido_sfun.obj
 0002:00000a18       __real@41c3a4f933800000    10042a18     Cinematica_JA_reducido_sfun.obj
 0002:00000a20       __real@41dbc271a2800000    10042a20     Cinematica_JA_reducido_sfun.obj
 0002:00000a28       __real@41e7aa6d3b400000    10042a28     Cinematica_JA_reducido_sfun.obj
 0002:00000a30       __real@41d2ad135e800000    10042a30     Cinematica_JA_reducido_sfun.obj
 0002:00000a38       __real@41e1da8b6f200000    10042a38     Cinematica_JA_reducido_sfun.obj
 0002:00000a40       __real@41c5b45b02800000    10042a40     Cinematica_JA_reducido_sfun.obj
 0002:00000a48       __real@41cf2b45a4800000    10042a48     Cinematica_JA_reducido_sfun.obj
 0002:00000a50       __real@41a4c53e08000000    10042a50     Cinematica_JA_reducido_sfun.obj
 0002:00000a58       __real@41d7794fa9c00000    10042a58     Cinematica_JA_reducido_sfun.obj
 0002:00000a60       __real@41e01c2479000000    10042a60     Cinematica_JA_reducido_sfun.obj
 0002:00000a68       __real@41b0715f30000000    10042a68     Cinematica_JA_reducido_sfun.obj
 0002:00000a70       ??_C@_00CNPNBAHC@?$AA@     10042a70     sfc_mexmsvc80:sfc_mex.obj
 0002:00000a74       ??_C@_05DGLCPCBN@?$CFsx?$CFd?$AA@ 10042a74     sfc_mexmsvc80:sfc_mex.obj
 0002:00000a7c       ??_C@_02DPKJAMEF@?$CFd?$AA@ 10042a7c     sfc_mexmsvc80:sfc_mex.obj
 0002:00000a80       __real@41f0000000000000    10042a80     sfc_mexmsvc80:sfc_mex.obj
 0002:00000a88       ??_C@_0CC@DJOAOECF@Unknown?5MATLAB?5error?5encountered@ 10042a88     sfc_mexmsvc80:sfc_mex.obj
 0002:00000aac       ??_C@_0CJ@DAIIKGLI@?$CFs?5in?5?$CFs?5should?5never?5be?5called?5@ 10042aac     sfc_mexmsvc80:sfc_mex.obj
 0002:00000ad8       ??_C@_0CE@ICKLNELB@Error?5calling?5MATLAB?5function?5?8?$CF@ 10042ad8     sfc_mexmsvc80:sfc_mex.obj
 0002:00000afc       ??_C@_02DKCKIIND@?$CFs?$AA@ 10042afc     sfc_mexmsvc80:sfc_mex.obj
 0002:00000b00       ??_C@_07PHDIELCI@lasterr?$AA@ 10042b00     sfc_mexmsvc80:sfc_mex.obj
 0002:00000b08       ??_C@_09HKCBALOK@embedded?4?$AA@ 10042b08     sfc_mexmsvc80:sfc_mex.obj
 0002:00000b14       ??_C@_06BNJCAIGJ@double?$AA@ 10042b14     sfc_mexmsvc80:sfc_mex.obj
 0002:00000b1c       ??_C@_06EJFMBPJF@single?$AA@ 10042b1c     sfc_mexmsvc80:sfc_mex.obj
 0002:00000b24       ??_C@_04KBDJOJNB@?$FL?$CFd?$FN?$AA@ 10042b24     sfc_mexmsvc80:sfc_mex.obj
 0002:00000b2c       ??_C@_0CD@NFPEPNBJ@Cannot?5add?5field?5?$CFs?5to?5struct?5?$CFs@ 10042b2c     sfc_mexmsvc80:sfc_mex.obj
 0002:00000b50       ??_C@_0CF@PLDCCEBG@Cannot?5get?5field?5?$CFs?5from?5struct?5@ 10042b50     sfc_mexmsvc80:sfc_mex.obj
 0002:00000b78       ??_C@_0CO@MFJLJCHI@Struct?5array?5?8?$CFs?8?5does?5not?5have?5@ 10042b78     sfc_mexmsvc80:sfc_mex.obj
 0002:00000ba8       ??_C@_0DF@IPGEGIDM@Object?5?8?$CFs?8?5is?5not?5a?5struct?3?5can@ 10042ba8     sfc_mexmsvc80:sfc_mex.obj
 0002:00000be0       ??_C@_0BL@KEKJNNL@MATLAB?5expression?5?8?$CFs?8?5?$CFs?4?$AA@ 10042be0     sfc_mexmsvc80:sfc_mex.obj
 0002:00000c00       ??_C@_0GH@JOEOEBFA@Size?5mismatch?5for?5?8?$CFs?8?5on?5dimens@ 10042c00     sfc_mexmsvc80:sfc_mex.obj
 0002:00000c68       ??_C@_04IAGNFIBA@size?$AA@ 10042c68     sfc_mexmsvc80:sfc_mex.obj
 0002:00000c70       ??_C@_0DN@DNLDLJNN@is?5not?5of?5the?5correct?5class?3?5exp@ 10042c70     sfc_mexmsvc80:sfc_mex.obj
 0002:00000cb0       ??_C@_06POLMGHPK@isreal?$AA@ 10042cb0     sfc_mexmsvc80:sfc_mex.obj
 0002:00000cb8       ??_C@_0CC@EDDDCJDC@is?5not?5of?5the?5correct?5complexnes@ 10042cb8     sfc_mexmsvc80:sfc_mex.obj
 0002:00000cdc       ??_C@_0CB@POBCEEOP@is?5not?5of?5the?5correct?5sparseness@ 10042cdc     sfc_mexmsvc80:sfc_mex.obj
 0002:00000d00       ??_C@_0CC@JOFDGEBC@is?5not?5of?5the?5correct?5numerictyp@ 10042d00     sfc_mexmsvc80:sfc_mex.obj
 0002:00000d24       ??_C@_07MIMONDDE@isequal?$AA@ 10042d24     sfc_mexmsvc80:sfc_mex.obj
 0002:00000d2c       ??_C@_0M@NAPEIPJI@numerictype?$AA@ 10042d2c     sfc_mexmsvc80:sfc_mex.obj
 0002:00000d38       ??_C@_0BN@IMIABIKK@is?5not?5of?5the?5correct?5fimath?$AA@ 10042d38     sfc_mexmsvc80:sfc_mex.obj
 0002:00000d58       ??_C@_06LJOKAFHF@fimath?$AA@ 10042d58     sfc_mexmsvc80:sfc_mex.obj
 0002:00000d60       ??_C@_0EP@IAFBLFNF@Stateflow?5Internal?5Error?3?5?6Error@ 10042d60     sfc_mexmsvc80:sfc_mex.obj
 0002:00000db0       ??_C@_02GFKODMMF@sf?$AA@   10042db0     sfc_mexmsvc80:sfc_mex.obj
 0002:00000db4       ??_C@_08MJJBNONC@mxDecode?$AA@ 10042db4     sfc_mexmsvc80:sfc_mex.obj
 0002:00000dc0       ??_C@_0GH@OOBFJADG@Simulation?5stopped?5due?5to?5out?5of@ 10042dc0     sfc_mexmsvc80:sfc_mex.obj
 0002:00000e28       ??_C@_0HC@JODLBNFO@Simulation?5stopped?5due?5to?5size?5m@ 10042e28     sfc_mexmsvc80:sfc_mex.obj
 0002:00000ea0       ??_C@_0HC@PPOAOPGB@Simulation?5stopped?5due?5to?5size?5m@ 10042ea0     sfc_mexmsvc80:sfc_mex.obj
 0002:00000f18       ??_C@_0JM@OFMOAAGL@Simulation?5stopped?5due?5to?5size?5m@ 10042f18     sfc_mexmsvc80:sfc_mex.obj
 0002:00000fb8       ??_C@_0KC@ODCGHMPH@Simulation?5stopped?5due?5to?5size?5o@ 10042fb8     sfc_mexmsvc80:sfc_mex.obj
 0002:00001060       ??_C@_0GO@BKNPNGBP@Subscripted?5assignment?5dimension@ 10043060     sfc_mexmsvc80:sfc_mex.obj
 0002:000010d0       ??_C@_0DJ@MEDANBMA@Enable?5debugging?5to?5pinpoint?5the@ 100430d0     sfc_mexmsvc80:sfc_mex.obj
 0002:0000110c       ??_C@_01CLKCMJKC@?5?$AA@   1004310c     sfc_mexmsvc80:sfc_mex.obj
 0002:00001110       ??_C@_0BAO@DDKKHLGF@Matrix?$CImatrix?$CJ?5subscript?5turned?5@ 10043110     sfc_mexmsvc80:sfc_mex.obj
 0002:00001220       ??_C@_0BAO@MGKOAKHL@Vector?$CIvector?$CJ?5subscript?5turned?5@ 10043220     sfc_mexmsvc80:sfc_mex.obj
 0002:00001330       ??_C@_0FC@HJKNPCCF@Negative?5value?5detected?4?5Enable?5@ 10043330     sfc_mexmsvc80:sfc_mex.obj
 0002:00001384       ??_C@_0DK@JJKHINMK@Overflow?5detected?4?5Enable?5debugg@ 10043384     sfc_mexmsvc80:sfc_mex.obj
 0002:000013c0       ??_C@_0EA@POIJMBCP@Divide?5by?5zero?5detected?4?5Enable?5@ 100433c0     sfc_mexmsvc80:sfc_mex.obj
 0002:00001400       ??_C@_0EK@CFEMECLL@Nonconforming?5enum?5value?5detecte@ 10043400     sfc_mexmsvc80:sfc_mex.obj
 0002:00001450       ??_C@_0EE@BPGAOMO@Size?5mismatch?5for?5MATLAB?5express@ 10043450     sfc_mexmsvc80:sfc_mex.obj
 0002:00001494       ??_C@_07JFPGMOK@fprintf?$AA@ 10043494     sfc_mexmsvc80:sfc_mex.obj
 0002:000014a0       ??_C@_0FE@EHCFPDEG@In?5MATLAB?5expression?5?8?$CFs?8?0?5field@ 100434a0     sfc_mexmsvc80:sfc_mex.obj
 0002:000014f4       ??_C@_0DE@IJIFCHLH@In?5MATLAB?5expression?5?8?$CFs?8?0?5field@ 100434f4     sfc_mexmsvc80:sfc_mex.obj
 0002:00001528       ??_C@_0FK@JKPMKGDE@MATLAB?5expression?5?8?$CFs?8?5does?5not?5@ 10043528     sfc_mexmsvc80:sfc_mex.obj
 0002:00001584       ??_C@_06PBJBIPGK@struct?$AA@ 10043584     sfc_mexmsvc80:sfc_mex.obj
 0002:0000158c       ??_C@_0O@NFNPPCGN@isfimathlocal?$AA@ 1004358c     sfc_mexmsvc80:sfc_mex.obj
 0002:0000159c       ??_C@_0M@MLCGNPLD@embedded?4fi?$AA@ 1004359c     sfc_mexmsvc80:sfc_mex.obj
 0002:000015a8       ??_C@_0M@EGMNDJHO@?$CFs?5?$DN?5?$CF?415g?6?$AA@ 100435a8     sfc_mexmsvc80:sfc_mex.obj
 0002:000015b4       ??_C@_03OFAPEBGM@?$CFs?6?$AA@ 100435b4     sfc_mexmsvc80:sfc_mex.obj
 0002:000015b8       ??_C@_0CL@LLBJDFID@failed?5sf_assertion?5in?5?$CFs?5at?5lin@ 100435b8     sfc_mexmsvc80:sfc_mex.obj
 0002:000015e8       ??_C@_0EJ@MIHEOKKA@?8?$CFs?8?3?5Array?5with?5number?5of?5dimen@ 100435e8     sfc_mexmsvc80:sfc_mex.obj
 0002:00001634       ??_C@_09JCLLFAHO@sfc_mex?4c?$AA@ 10043634     sfc_mexmsvc80:sfc_mex.obj
 0002:00001640       ??_C@_0O@FCFMOEOA@aNumDims?5?$DO?$DN?50?$AA@ 10043640     sfc_mexmsvc80:sfc_mex.obj
 0002:00001650       ??_C@_0CK@KDIMGCCA@?8?$CFs?8?3?5Sparse?5matrices?5are?5not?5su@ 10043650     sfc_mexmsvc80:sfc_mex.obj
 0002:0000167c       ??_C@_0CI@KBLJAMNB@MATLAB?5expression?5?8?$CFs?8?5is?5not?5nu@ 1004367c     sfc_mexmsvc80:sfc_mex.obj
 0002:000016a4       ??_C@_0P@LCMMCGDM@aSrcMx?5?$CB?$DN?5NULL?$AA@ 100436a4     sfc_mexmsvc80:sfc_mex.obj
 0002:000016b8       ??_C@_0EI@HJNNACGI@Eval?5of?5MATLAB?5expression?5?8?$CFs?8?5i@ 100436b8     sfc_mexmsvc80:sfc_mex.obj
 0002:00001700       ??_C@_0DM@BJICAGGK@Stateflow?5currently?5only?5support@ 10043700     sfc_mexmsvc80:sfc_mex.obj
 0002:0000173c       ??_C@_05LAPONLG@false?$AA@ 1004373c     sfc_mexmsvc80:sfc_mex.obj
 0002:00001744       ??_C@_03LHCJEHON@nan?$AA@  10043744     sfc_mexmsvc80:sfc_mex.obj
 0002:00001748       ??_C@_04BHIIPFEC@base?$AA@ 10043748     sfc_mexmsvc80:sfc_mex.obj
 0002:00001750       ??_C@_06PLMANNP@evalin?$AA@ 10043750     sfc_mexmsvc80:sfc_mex.obj
 0002:00001758       ??_C@_06GFECGKEO@caller?$AA@ 10043758     sfc_mexmsvc80:sfc_mex.obj
 0002:00001760       ??_C@_0CM@LOMLNLMC@Invalid?5workspace?5type?5for?5sf_ma@ 10043760     sfc_mexmsvc80:sfc_mex.obj
 0002:0000178c       ??_C@_01GBGANLPD@0?$AA@    1004378c     sfc_mexmsvc80:sfc_mex.obj
 0002:00001790       ??_C@_06FJKEMHGD@global?$AA@ 10043790     sfc_mexmsvc80:sfc_mex.obj
 0002:00001798       ??_C@_0BH@HNIMIIFD@Unknown?5workspace?5type?$AA@ 10043798     sfc_mexmsvc80:sfc_mex.obj
 0002:000017b0       ??_C@_08KHPDDPHG@getfield?$AA@ 100437b0     sfc_mexmsvc80:sfc_mex.obj
 0002:000017bc       ??_C@_05LPIJGKJ@Value?$AA@ 100437bc     sfc_mexmsvc80:sfc_mex.obj
 0002:000017c4       ??_C@_0DA@IPMLFPJI@MATLAB?5expression?5?8?$CFs?8?5could?5not@ 100437c4     sfc_mexmsvc80:sfc_mex.obj
 0002:000017f8       ??_C@_0EB@HHPLBHBA@Parameter?5value?5out?5of?5bounds?4?5?$CF@ 100437f8     sfc_mexmsvc80:sfc_mex.obj
 0002:0000183c       ??_C@_0CB@DBMOOMDL@Unsupported?5class?5type?5?$CFs?5for?5?$CFs@ 1004383c     sfc_mexmsvc80:sfc_mex.obj
 0002:00001860       ??_C@_0BI@OPNKAIOC@mxIsComplex?$CImxArrayPtr?$CJ?$AA@ 10043860     sfc_mexmsvc80:sfc_mex.obj
 0002:00001878       ??_C@_0GA@OFLPCMBM@Stateflow?5Runtime?5Warning?3?5Loss?5@ 10043878     sfc_mexmsvc80:sfc_mex.obj
 0002:000018d8       __real@3810000000000000    100438d8     sfc_mexmsvc80:sfc_mex.obj
 0002:000018e0       __real@47efffffe0000000    100438e0     sfc_mexmsvc80:sfc_mex.obj
 0002:000018e8       __real@c060000000000000    100438e8     sfc_mexmsvc80:sfc_mex.obj
 0002:000018f0       __real@405fc00000000000    100438f0     sfc_mexmsvc80:sfc_mex.obj
 0002:000018f8       __real@406fe00000000000    100438f8     sfc_mexmsvc80:sfc_mex.obj
 0002:00001900       __real@c0e0000000000000    10043900     sfc_mexmsvc80:sfc_mex.obj
 0002:00001908       __real@40dfffc000000000    10043908     sfc_mexmsvc80:sfc_mex.obj
 0002:00001910       __real@40efffe000000000    10043910     sfc_mexmsvc80:sfc_mex.obj
 0002:00001918       __real@c1e0000000000000    10043918     sfc_mexmsvc80:sfc_mex.obj
 0002:00001920       __real@41dfffffffc00000    10043920     sfc_mexmsvc80:sfc_mex.obj
 0002:00001928       __real@41efffffffe00000    10043928     sfc_mexmsvc80:sfc_mex.obj
 0002:00001930       ??_C@_0DO@JIJMNCAH@Class?5mismatch?5for?5variable?5?8?$CFs?8@ 10043930     sfc_mexmsvc80:sfc_mex.obj
 0002:00001970       ??_C@_03BBKEAIF@?$DP?$DP?$DP?$AA@ 10043970     sfc_mexmsvc80:sfc_mex.obj
 0002:00001974       ??_C@_0DE@HICLJLJO@Assignment?5of?5complex?5data?5to?5no@ 10043974     sfc_mexmsvc80:sfc_mex.obj
 0002:000019a8       ??_C@_0CF@NHFFCIEB@MATLAB?5function?5?8?$CFs?8?5returned?5NU@ 100439a8     sfc_mexmsvc80:sfc_mex.obj
 0002:000019d0       __real@4f800000            100439d0     sfc_mexmsvc80:sfc_mex.obj
 0002:000019d8       ??_C@_0GP@JPKMBIEI@Array?5bounds?5error?5in?5MATLAB?5exp@ 100439d8     sfc_mexmsvc80:sfc_mex.obj
 0002:00001a48       ??_C@_0P@FLJFOPHI@pIndex?$FLi?$FN?5?$DO?$DN?50?$AA@ 10043a48     sfc_mexmsvc80:sfc_mex.obj
 0002:00001a58       ??_C@_0DI@IGEABFHB@MATLAB?5expression?5?8?$CFs?8?5has?5?$CFd?5di@ 10043a58     sfc_mexmsvc80:sfc_mex.obj
 0002:00001a90       ??_C@_0L@EFLJKPA@mxArrayPtr?$AA@ 10043a90     sfc_mexmsvc80:sfc_mex.obj
 0002:00001a9c       ??_C@_0CK@FHKKOEPH@numDims?5?$DO?$DN?50?5?$CG?$CG?5numDims?5?$DM?$DN?5MAX_D@ 10043a9c     sfc_mexmsvc80:sfc_mex.obj
 0002:00001ac8       ??_C@_0EM@MPIDLJBF@MATLAB?5expression?5?8?$CFs?8?5subscript@ 10043ac8     sfc_mexmsvc80:sfc_mex.obj
 0002:00001b14       ??_C@_04IGKKBJEE@?$DN?$CFg?$DL?$AA@ 10043b14     sfc_mexmsvc80:sfc_mex.obj
 0002:00001b1c       ??_C@_01PKGAHCOL@?$CJ?$AA@ 10043b1c     sfc_mexmsvc80:sfc_mex.obj
 0002:00001b20       ??_C@_03LEIBKMN@?0?$CFd?$AA@ 10043b20     sfc_mexmsvc80:sfc_mex.obj
 0002:00001b24       ??_C@_03IECKINJK@?$CI?$CFd?$AA@ 10043b24     sfc_mexmsvc80:sfc_mex.obj
 0002:00001b28       ??_C@_0FB@HKJNNBFK@Stateflow?5ml?5type?5data?5?8?$CFs?8?5subs@ 10043b28     sfc_mexmsvc80:sfc_mex.obj
 0002:00001b7c       ??_C@_0CN@HPHHCDPK@Stateflow?5ml?5type?5data?5?8?$CFs?8?5is?5n@ 10043b7c     sfc_mexmsvc80:sfc_mex.obj
 0002:00001bac       ??_C@_0CG@JIOBALFE@Stateflow?5ml?5type?5data?5?8?$CFs?8?5is?5e@ 10043bac     sfc_mexmsvc80:sfc_mex.obj
 0002:00001bd4       ??_C@_0BD@GAHDCPBG@mxArrayPtr?5?$CB?$DN?5NULL?$AA@ 10043bd4     sfc_mexmsvc80:sfc_mex.obj
 0002:00001be8       ??_C@_0CF@HCINMAFF@result?5?$DN?5mxCreateDoubleScalar?$CIva@ 10043be8     sfc_mexmsvc80:sfc_mex.obj
 0002:00001c10       ??_C@_0BF@GAJKLFOH@fixpt_lower_mx_array?$AA@ 10043c10     sfc_mexmsvc80:sfc_mex.obj
 0002:00001c28       ??_C@_02FINOOIBE@Cg?$AA@   10043c28     sfc_mexmsvc80:sfc_mex.obj
 0002:00001c2c       ??_C@_09GIFEIFFL@sfprivate?$AA@ 10043c2c     sfc_mexmsvc80:sfc_sf.obj
 0002:00001c38       ??_C@_0CC@JDELABLI@get_machine_and_chart_file_numbe@ 10043c38     sfc_mexmsvc80:sfc_sf.obj
 0002:00001c5c       ??_C@_0BO@JCKKMPIB@get_sfun_block_specialization?$AA@ 10043c5c     sfc_mexmsvc80:sfc_sf.obj
 0002:00001c80       ??_C@_0FP@OGBKADON@The?5chart?5name?5?4?4?4?$CFs?5is?5not?5pres@ 10043c80     sfc_mexmsvc80:sfc_sf.obj
 0002:00001ce0       ??_C@_0FM@KEMGDKHM@The?5chart?5name?5?$CFs?5is?5not?5present@ 10043ce0     sfc_mexmsvc80:sfc_sf.obj
 0002:00001d3c       ??_C@_0BD@NMFAPBEK@mdlInitializeSizes?$AA@ 10043d3c     sfc_mexmsvc80:sfc_sf.obj
 0002:00001d50       ??_C@_06EJFCAODB@sfc_sf?$AA@ 10043d50     sfc_mexmsvc80:sfc_sf.obj
 0002:00001d58       ??_C@_0BJ@PBIFPMMD@mdlInitializeSampleTimes?$AA@ 10043d58     sfc_mexmsvc80:sfc_sf.obj
 0002:00001d78       ??_C@_0IP@CJMACPIP@Stateflow?5Internal?5Error?3?5?6rtw_o@ 10043d78     sfc_mexmsvc80:sfc_sf.obj
 0002:00001e08       ??_C@_0GN@DNCJEGHD@Stateflow?5Internal?5Error?3?5?6Error@ 10043e08     sfc_mexmsvc80:sfc_sf.obj
 0002:00001e78       ??_C@_0BG@PNKGMGHF@rtw_optimization_info?$AA@ 10043e78     sfc_mexmsvc80:sfc_sf.obj
 0002:00001e90       ??_C@_07CFINJGKH@Private?$AA@ 10043e90     sfc_mexmsvc80:sfc_sf.obj
 0002:00001e98       ??_C@_0BA@PHPHFLPF@chart_inlinable?$AA@ 10043e98     sfc_mexmsvc80:sfc_sf.obj
 0002:00001ea8       ??_C@_0MB@KGDKCEKF@Stateflow?5Internal?5Error?3?5?6Numbe@ 10043ea8     sfc_mexmsvc80:sfc_sf.obj
 0002:00001f6c       ??_C@_0CA@GOKFFBBO@outputEventsWithMultipleCallers?$AA@ 10043f6c     sfc_mexmsvc80:sfc_sf.obj
 0002:00001f90       ??_C@_0LH@NDHODBLK@Stateflow?5Internal?5Error?3?5?6Numbe@ 10043f90     sfc_mexmsvc80:sfc_sf.obj
 0002:00002048       ??_C@_0BB@GEEDBOGK@reusable_outputs?$AA@ 10044048     sfc_mexmsvc80:sfc_sf.obj
 0002:00002060       ??_C@_0II@FEBCOBGA@Stateflow?5Internal?5Error?3?5?6Numbe@ 10044060     sfc_mexmsvc80:sfc_sf.obj
 0002:000020e8       ??_C@_0BG@HMMHPAKE@expressionable_inputs?$AA@ 100440e8     sfc_mexmsvc80:sfc_sf.obj
 0002:00002100       ??_C@_01CELHOKLL@?$HN?$AA@ 10044100     sfc_mexmsvc80:sfc_sf.obj
 0002:00002104       ??_C@_0BA@OMJBIEIL@SymbolMapping?5?$HL?$AA@ 10044104     sfc_mexmsvc80:sfc_sf.obj
 0002:00002114       ??_C@_07MMIKLHCA@defines?$AA@ 10044114     sfc_mexmsvc80:sfc_sf.obj
 0002:0000211c       ??_C@_09CEAIPAHE@functions?$AA@ 1004411c     sfc_mexmsvc80:sfc_sf.obj
 0002:00002128       ??_C@_09PNCJPHGM@sfSymbols?$AA@ 10044128     sfc_mexmsvc80:sfc_sf.obj
 0002:00002134       ??_C@_0BB@MBBOKNEL@listen_for_ctrlc?$AA@ 10044134     sfc_mexmsvc80:sfc_sf.obj
 0002:00002148       ??_C@_03LOANPFAI@mex?$AA@  10044148     sfc_mexmsvc80:sfc_sf.obj
 0002:0000214c       ??_C@_07HLHKBCBI@sfdebug?$AA@ 1004414c     sfc_mexmsvc80:sfc_sf.obj
 0002:00002154       ??_C@_07MFNNEMOJ@drawnow?$AA@ 10044154     sfc_mexmsvc80:sfc_sf.obj
 0002:00002160       __real@3fd3333333333333    10044160     sfc_mexmsvc80:sfc_sf.obj
 0002:00002168       ??_C@_0DG@OJBAPEMA@Internal?5Error?3?5paramsIndex?5?$DN?5?$CFd@ 10044168     sfc_mexmsvc80:sfc_sf.obj
 0002:000021a0       ??_C@_0BAI@GPDPHGCD@Cannot?5broadcast?5function?5call?5o@ 100441a0     sfc_mexmsvc80:sfc_sf.obj
 0002:000022a8       ??_C@_0BBC@NGKHEJAF@Cannot?5enable?1disable?5function?5c@ 100442a8     sfc_mexmsvc80:sfc_sf.obj
 0002:000023bc       ??_C@_08HDNBGBNP@bitWidth?$AA@ 100443bc     sfc_mexmsvc80:sfc_sf.obj
 0002:000023c8       ??_C@_0BG@MDDFDLDC@resolveToSignalObject?$AA@ 100443c8     sfc_mexmsvc80:sfc_sf.obj
 0002:000023e0       ??_C@_07KHBFOCMF@varName?$AA@ 100443e0     sfc_mexmsvc80:sfc_sf.obj
 0002:000023e8       ??_C@_09LHPHPAOE@isComplex?$AA@ 100443e8     sfc_mexmsvc80:sfc_sf.obj
 0002:000023f4       ??_C@_08MLIGMCAH@typeSize?$AA@ 100443f4     sfc_mexmsvc80:sfc_sf.obj
 0002:00002400       ??_C@_0CM@OAMAJMIG@Failed?5to?5register?5type?5?8?$CFs?8?5wit@ 10044400     sfc_mexmsvc80:sfc_sf.obj
 0002:0000242c       ??_C@_0BI@OFLHAMB@vector_of_void_pointers?$AA@ 1004442c     sfc_mexmsvc80:sfc_sf.obj
 0002:00002444       ??_C@_04NBAGBPGE@bias?$AA@ 10044444     sfc_mexmsvc80:sfc_sf.obj
 0002:0000244c       ??_C@_08EGJNFMPO@exponent?$AA@ 1004444c     sfc_mexmsvc80:sfc_sf.obj
 0002:00002458       ??_C@_05LAHHKLJI@slope?$AA@ 10044458     sfc_mexmsvc80:sfc_sf.obj
 0002:00002460       ??_C@_0L@EMMELFNN@wordLength?$AA@ 10044460     sfc_mexmsvc80:sfc_sf.obj
 0002:0000246c       ??_C@_08EJEJGLGA@isSigned?$AA@ 1004446c     sfc_mexmsvc80:sfc_sf.obj
 0002:00002478       ??_C@_05LFJLPLPG@fixpt?$AA@ 10044478     sfc_mexmsvc80:sfc_sf.obj
 0002:00002480       ??_C@_07GOBOHMJA@boolean?$AA@ 10044480     sfc_mexmsvc80:sfc_sf.obj
 0002:00002488       ??_C@_06PKDKHAMA@uint32?$AA@ 10044488     sfc_mexmsvc80:sfc_sf.obj
 0002:00002490       ??_C@_05GIMEPBJB@int32?$AA@ 10044490     sfc_mexmsvc80:sfc_sf.obj
 0002:00002498       ??_C@_06JNNCGBKK@uint16?$AA@ 10044498     sfc_mexmsvc80:sfc_sf.obj
 0002:000024a0       ??_C@_05PCMOAPL@int16?$AA@ 100444a0     sfc_mexmsvc80:sfc_sf.obj
 0002:000024a8       ??_C@_05BOGOCLFF@uint8?$AA@ 100444a8     sfc_mexmsvc80:sfc_sf.obj
 0002:000024b0       ??_C@_04DCGBOBJJ@int8?$AA@ 100444b0     sfc_mexmsvc80:sfc_sf.obj
 0002:000024b8       ??_C@_04GPMDFGEJ@type?$AA@ 100444b8     sfc_mexmsvc80:sfc_sf.obj
 0002:000024c0       ??_C@_0O@EIPJLOAA@extModeUpload?$AA@ 100444c0     sfc_mexmsvc80:sfc_sf.obj
 0002:000024d0       ??_C@_03PLHFFLIH@ptr?$AA@  100444d0     sfc_mexmsvc80:sfc_sf.obj
 0002:000024d4       ??_C@_0BC@HMCIKMPA@requiredStackSize?$AA@ 100444d4     sfc_mexmsvc80:sfc_sf.obj
 0002:000024e8       ??_C@_0CB@OCGIMAKA@RegisterMachineParentedDataDwork@ 100444e8     sfc_mexmsvc80:sfc_sf.obj
 0002:0000250c       ??_C@_0BD@LFPAKDFC@machineDataVarInfo?$AA@ 1004450c     sfc_mexmsvc80:sfc_sf.obj
 0002:00002520       ??_C@_09GAJBGLOB@dworkInfo?$AA@ 10044520     sfc_mexmsvc80:sfc_sf.obj
 0002:0000252c       _sf_uint_bits_log2         1004452c     sfc_debugmsvc80:sfcdebug.obj
 0002:0000254c       ??_C@_04GKMJMOBJ@disp?$AA@ 1004454c     sfc_debugmsvc80:sfcdebug.obj
 0002:00002554       ??_C@_0DJ@GEKCDEED@Runtime?5size?5mismatch?5for?5dimens@ 10044554     sfc_debugmsvc80:sfcdebug.obj
 0002:00002590       ??_C@_0N@IHFJDIPG@load_machine?$AA@ 10044590     sfc_debugmsvc80:sfcdebug.obj
 0002:000025a0       ??_C@_0P@NOFOFJMO@ScriptCacheGet?$AA@ 100445a0     sfc_debugmsvc80:sfcdebug.obj
 0002:000025b0       ??_C@_0BD@LPIHANBP@State?5Entry?5Action?$AA@ 100445b0     sfc_debugmsvc80:sfcdebug.obj
 0002:000025c4       ??_C@_0BE@EDAKPKIF@State?5During?5Action?$AA@ 100445c4     sfc_debugmsvc80:sfcdebug.obj
 0002:000025d8       ??_C@_0BC@FKIGLKJE@State?5Exit?5Action?$AA@ 100445d8     sfc_debugmsvc80:sfcdebug.obj
 0002:000025ec       ??_C@_04CGFJFPFD@none?$AA@ 100445ec     sfc_debugmsvc80:sfcdebug.obj
 0002:000025f4       ??_C@_0BC@EPJNNAPA@Transition?5Action?$AA@ 100445f4     sfc_debugmsvc80:sfcdebug.obj
 0002:00002608       ??_C@_0BB@ODEGBFLN@Condition?5Action?$AA@ 10044608     sfc_debugmsvc80:sfcdebug.obj
 0002:0000261c       ??_C@_0BO@JIGLNAHF@Transition?5Guarding?5Condition?$AA@ 1004461c     sfc_debugmsvc80:sfcdebug.obj
 0002:0000263c       ??_C@_0BD@JMJALEKH@Transition?5Trigger?$AA@ 1004463c     sfc_debugmsvc80:sfcdebug.obj
 0002:00002650       ??_C@_0DI@JGHJOLLJ@INTERNAL?5ERROR?4?5Failed?5assertion@ 10044650     sfc_debugmsvc80:sfcdebug.obj
 0002:00002688       ??_C@_01EEMJAFIK@?6?$AA@   10044688     sfc_debugmsvc80:sfcdebug.obj
 0002:0000268c       ??_C@_0P@HHNBJNJA@context_string?$AA@ 1004468c     sfc_debugmsvc80:sfcdebug.obj
 0002:0000269c       ??_C@_0DL@EPKGPGLC@?$CImachine?9?$DOdataCompInfo?4fixedPoin@ 1004469c     sfc_debugmsvc80:sfcdebug.obj
 0002:000026d8       ??_C@_0L@GJHMCDGO@sfcdebug?4c?$AA@ 100446d8     sfc_debugmsvc80:sfcdebug.obj
 0002:000026e4       ??_C@_0DE@CBCLKIAM@?$CImachine?9?$DOdataCompInfo?4isComplex@ 100446e4     sfc_debugmsvc80:sfcdebug.obj
 0002:00002718       ??_C@_0DP@MDOJBFKE@?$CIinstance?9?$DOdataCompInfo?4fixedPoi@ 10044718     sfc_debugmsvc80:sfcdebug.obj
 0002:00002758       ??_C@_0DM@KFHGIBMB@?$CIinstance?9?$DOdataCompInfo?4fixedPoi@ 10044758     sfc_debugmsvc80:sfcdebug.obj
 0002:00002794       ??_C@_0DF@IIPJPBAH@?$CIinstance?9?$DOdataCompInfo?4isComple@ 10044794     sfc_debugmsvc80:sfcdebug.obj
 0002:000027cc       ??_C@_0DA@OMEPAHNH@?$CIchart?9?$DOdata?4outputDataFlags?$CJ?4le@ 100447cc     sfc_debugmsvc80:sfcdebug.obj
 0002:000027fc       ??_C@_0CP@JPBDBJBK@?$CIchart?9?$DOdata?4inputDataFlags?$CJ?4len@ 100447fc     sfc_debugmsvc80:sfcdebug.obj
 0002:0000282c       ??_C@_03KGJNKAJD@lic?$AA@  1004482c     sfc_debugmsvc80:sfcdebug.obj
 0002:00002830       ??_C@_04PNMLDJAE@ense?$AA@ 10044830     sfc_debugmsvc80:sfcdebug.obj
 0002:00002838       ??_C@_0L@ONMHLBPB@?$CFs?$CFs?$CFslbox?$AA@ 10044838     sfc_debugmsvc80:sfcdebug.obj
 0002:00002844       ??_C@_04CLOJJEIM@fixe?$AA@ 10044844     sfc_debugmsvc80:sfcdebug.obj
 0002:0000284c       ??_C@_05CBHOIFCP@t_too?$AA@ 1004484c     sfc_debugmsvc80:sfcdebug.obj
 0002:00002854       ??_C@_06MGFNEDEJ@d_poin?$AA@ 10044854     sfc_debugmsvc80:sfcdebug.obj
 0002:0000285c       ??_C@_04HDOCAJNK@?$CFs?$CFs?$AA@ 1004485c     sfc_debugmsvc80:sfcdebug.obj
 0002:00002864       ??_C@_04BJBBOLDM@chec?$AA@ 10044864     sfc_debugmsvc80:sfcdebug.obj
 0002:0000286c       ??_C@_04KNBDLPKC@kout?$AA@ 1004486c     sfc_debugmsvc80:sfcdebug.obj
 0002:00002874       ??_C@_0BA@FKECJMCE@active_instance?$AA@ 10044874     sfc_debugmsvc80:sfcdebug.obj
 0002:00002884       ??_C@_0DD@MJFCMKPO@transCnt?5?$DN?$DN?5instance?9?$DOcvToolIds?4@ 10044884     sfc_debugmsvc80:sfcdebug.obj
 0002:000028b8       ??_C@_0CO@MONEMJEL@stateCnt?5?$DN?$DN?5instance?9?$DOcvToolIds?4@ 100448b8     sfc_debugmsvc80:sfcdebug.obj
 0002:000028e8       ??_C@_0O@ELHBEDAD@init_debugger?$AA@ 100448e8     sfc_debugmsvc80:sfcdebug.obj
 0002:000028f8       ??_C@_0L@PKOFOKNN@break_here?$AA@ 100448f8     sfc_debugmsvc80:sfcdebug.obj
 0002:00002904       ??_C@_0BH@KBPHNGCH@script?4activeMachineId?$AA@ 10044904     sfc_debugmsvc80:sfcdebug.obj
 0002:0000291c       ??_C@_03KCHOJKKI@set?$AA@  1004491c     sfc_debugmsvc80:sfcdebug.obj
 0002:00002920       ??_C@_0DD@PKMAPHBF@?$CImachine?9?$DOdata?4watchFlags?$CJ?4lengt@ 10044920     sfc_debugmsvc80:sfcdebug.obj
 0002:00002958       ??_C@_0FE@KLPHIMDI@?$CIchart?9?$DOdata?4watchFlags?$CJ?4length?$DO@ 10044958     sfc_debugmsvc80:sfcdebug.obj
 0002:000029ac       ??_C@_0BO@GFBPGEIL@bufferSizeGet?5?$DN?$DN?5totalSizeGet?$AA@ 100449ac     sfc_debugmsvc80:sfcdebug.obj
 0002:000029cc       ??_C@_0BO@BEEPOEDP@bufferSizeSet?5?$DN?$DN?5totalSizeSet?$AA@ 100449cc     sfc_debugmsvc80:sfcdebug.obj
 0002:000029ec       ??_C@_0BG@NNAKOPEK@get_script_line_count?$AA@ 100449ec     sfc_debugmsvc80:sfcdebug.obj
 0002:00002a04       ??_C@_0BJ@GADAHKGG@temporal_threshold_error?$AA@ 10044a04     sfc_debugmsvc80:sfcdebug.obj
 0002:00002a20       ??_C@_0BK@KABIOMCC@transition_conflict_error?$AA@ 10044a20     sfc_debugmsvc80:sfcdebug.obj
 0002:00002a3c       ??_C@_0BK@HLPANOPJ@state_inconsistency_error?$AA@ 10044a3c     sfc_debugmsvc80:sfcdebug.obj
 0002:00002a58       ??_C@_0BA@PCEGODO@cycle_detection?$AA@ 10044a58     sfc_debugmsvc80:sfcdebug.obj
 0002:00002a68       ??_C@_0CP@HMOGACCG@Simulation?5stopped?5due?5to?5out?5of@ 10044a68     sfc_debugmsvc80:sfcdebug.obj
 0002:00002a98       ??_C@_0BD@LFFFHIJG@array_bounds_error?$AA@ 10044a98     sfc_debugmsvc80:sfcdebug.obj
 0002:00002aac       ??_C@_0O@IENBAMNA@runtime_error?$AA@ 10044aac     sfc_debugmsvc80:sfcdebug.obj
 0002:00002abc       ??_C@_0CC@EDKHOOPE@Call?5to?5MATLAB?5function?5aborted?3@ 10044abc     sfc_debugmsvc80:sfcdebug.obj
 0002:00002ae0       ??_C@_0DJ@JBGHLJFL@Simulation?5stopped?5due?5to?5size?5m@ 10044ae0     sfc_debugmsvc80:sfcdebug.obj
 0002:00002b1c       ??_C@_0DJ@EAKPCDBG@Simulation?5stopped?5due?5to?5size?5m@ 10044b1c     sfc_debugmsvc80:sfcdebug.obj
 0002:00002b58       ??_C@_0GD@BJCLDBKO@Simulation?5stopped?5due?5to?5size?5m@ 10044b58     sfc_debugmsvc80:sfcdebug.obj
 0002:00002bc0       ??_C@_0GJ@OHCOIONE@Simulation?5stopped?5due?5to?5size?5o@ 10044bc0     sfc_debugmsvc80:sfcdebug.obj
 0002:00002c2c       ??_C@_0DF@BOMHHCNB@Subscripted?5assignment?5dimension@ 10044c2c     sfc_debugmsvc80:sfcdebug.obj
 0002:00002c68       ??_C@_0NG@BOPFGKBO@Matrix?$CImatrix?$CJ?5subscript?5turned?5@ 10044c68     sfc_debugmsvc80:sfcdebug.obj
 0002:00002d40       ??_C@_0HE@FPEPCMDA@Matrix?$CImatrix?$CJ?5subscript?5turned?5@ 10044d40     sfc_debugmsvc80:sfcdebug.obj
 0002:00002db8       ??_C@_0NG@MLJIHJIH@Vector?$CIvector?$CJ?5subscript?5turned?5@ 10044db8     sfc_debugmsvc80:sfcdebug.obj
 0002:00002e90       ??_C@_0HE@BHPDCNDF@Vector?$CIvector?$CJ?5subscript?5turned?5@ 10044e90     sfc_debugmsvc80:sfcdebug.obj
 0002:00002f04       ??_C@_0BL@HKADOJK@Unknown?5runtime?5error?3?5?$CFs?4?$AA@ 10044f04     sfc_debugmsvc80:sfcdebug.obj
 0002:00002f20       ??_C@_0P@FIEIFKHH@dataName?$CB?$DNNULL?$AA@ 10044f20     sfc_debugmsvc80:sfcdebug.obj
 0002:00002f30       ??_C@_0BC@JKFOPCCM@non_integer_error?$AA@ 10044f30     sfc_debugmsvc80:sfcdebug.obj
 0002:00002f44       ??_C@_09MMCAMPEC@nan_error?$AA@ 10044f44     sfc_debugmsvc80:sfcdebug.obj
 0002:00002f50       ??_C@_0P@KGNBONIG@negative_error?$AA@ 10044f50     sfc_debugmsvc80:sfcdebug.obj
 0002:00002f60       ??_C@_0DA@OEGHOJFO@Simulation?5stopped?5due?5to?5divide@ 10044f60     sfc_debugmsvc80:sfcdebug.obj
 0002:00002f90       ??_C@_0P@DAGNNBKM@overflow_error?$AA@ 10044f90     sfc_debugmsvc80:sfcdebug.obj
 0002:00002fa0       ??_C@_0BF@IEPBJJM@divide_by_zero_error?$AA@ 10044fa0     sfc_debugmsvc80:sfcdebug.obj
 0002:00002fb8       ??_C@_0BC@CNIFONOF@unsafe_enum_error?$AA@ 10044fb8     sfc_debugmsvc80:sfcdebug.obj
 0002:00002fcc       ??_C@_0BA@GLGJGIFO@data_loss_error?$AA@ 10044fcc     sfc_debugmsvc80:sfcdebug.obj
 0002:00002fdc       ??_C@_0BB@LFNCDKMF@data_range_error?$AA@ 10044fdc     sfc_debugmsvc80:sfcdebug.obj
 0002:00002ff0       __real@4059000000000000    10044ff0     sfc_debugmsvc80:sfcdebug.obj
 0002:00002ff8       ??_C@_0EL@LHLCBPON@objectType?$DN?$DNEVENT_OBJECT?5?$CG?$CG?5obje@ 10044ff8     sfc_debugmsvc80:sfcdebug.obj
 0002:00003044       ??_C@_0CK@BGKNIJPH@Simulation?5stopped?5due?5to?5infini@ 10045044     sfc_debugmsvc80:sfcdebug.obj
 0002:00003070       ??_C@_0EC@EKMLJIIP@strlen?$CItargetName?$CJ?$DMsizeof?$CIdebugI@ 10045070     sfc_debugmsvc80:sfcdebug.obj
 0002:000030b8       ??_C@_0EE@LPPEFNLK@strlen?$CImachineName?$CJ?$DMsizeof?$CIdebug@ 100450b8     sfc_debugmsvc80:sfcdebug.obj
 0002:000030fc       ??_C@_0P@NDNBPAGO@charts?9?$DOsize?$DO0?$AA@ 100450fc     sfc_debugmsvc80:sfcdebug.obj
 0002:0000310c       ??_C@_09DACGJFPO@terminate?$AA@ 1004510c     sfc_debugmsvc80:sfcdebug.obj
 0002:00003118       ??_C@_0BH@BOIPOAMD@currentoptionalinteger?$AA@ 10045118     sfc_debugmsvc80:sfc_api.obj
 0002:00003130       ??_C@_0BI@KDFLIHKN@currentstatementcontext?$AA@ 10045130     sfc_debugmsvc80:sfc_api.obj
 0002:00003148       ??_C@_0BF@CJJCNHOP@currentstatementinfo?$AA@ 10045148     sfc_debugmsvc80:sfc_api.obj
 0002:00003160       ??_C@_0BA@EEHAMBBL@currentcoverage?$AA@ 10045160     sfc_debugmsvc80:sfc_api.obj
 0002:00003170       ??_C@_0BD@CPIGBEHM@currentmachinename?$AA@ 10045170     sfc_debugmsvc80:sfc_api.obj
 0002:00003184       ??_C@_0BF@MPNFKHIK@currentmachinenumber?$AA@ 10045184     sfc_debugmsvc80:sfc_api.obj
 0002:0000319c       ??_C@_0BB@EAGFPGEG@currentmachineid?$AA@ 1004519c     sfc_debugmsvc80:sfc_api.obj
 0002:000031b0       ??_C@_0P@LDEJFJKJ@simulationtime?$AA@ 100451b0     sfc_debugmsvc80:sfc_api.obj
 0002:000031c0       ??_C@_0P@CKMPNBM@currenttagtype?$AA@ 100451c0     sfc_debugmsvc80:sfc_api.obj
 0002:000031d0       ??_C@_0BH@EMAALFDO@currentactiveeventtype?$AA@ 100451d0     sfc_debugmsvc80:sfc_api.obj
 0002:000031e8       ??_C@_0BF@BIDFPCPF@currentactiveeventid?$AA@ 100451e8     sfc_debugmsvc80:sfc_api.obj
 0002:00003200       ??_C@_0BA@LAPNNELA@currentobjectid?$AA@ 10045200     sfc_debugmsvc80:sfc_api.obj
 0002:00003210       ??_C@_0BB@LLJHHKEI@currenteventtype?$AA@ 10045210     sfc_debugmsvc80:sfc_api.obj
 0002:00003224       ??_C@_0BC@BDADCDEL@currentobjecttype?$AA@ 10045224     sfc_debugmsvc80:sfc_api.obj
 0002:00003238       ??_C@_0BH@HDHFFKCN@currentisminortimestep?$AA@ 10045238     sfc_debugmsvc80:sfc_api.obj
 0002:00003250       ??_C@_0BG@PKFJEKLL@currentinstancehandle?$AA@ 10045250     sfc_debugmsvc80:sfc_api.obj
 0002:00003268       ??_C@_0BG@GJFHKFBJ@currentinstancenumber?$AA@ 10045268     sfc_debugmsvc80:sfc_api.obj
 0002:00003280       ??_C@_0BD@DKAMMHEE@currentchartnumber?$AA@ 10045280     sfc_debugmsvc80:sfc_api.obj
 0002:00003294       ??_C@_0P@EANFOHCD@currentchartid?$AA@ 10045294     sfc_debugmsvc80:sfc_api.obj
 0002:000032a4       ??_C@_06IMFOKBKF@assign?$AA@ 100452a4     sfc_debugmsvc80:sfc_api.obj
 0002:000032ac       ??_C@_0BC@CMFMGKCG@set_script_cv_ids?$AA@ 100452ac     sfc_debugmsvc80:sfc_api.obj
 0002:000032c0       ??_C@_0BE@ONNFKBAC@set_instance_cv_ids?$AA@ 100452c0     sfc_debugmsvc80:sfc_api.obj
 0002:000032d4       ??_C@_0BE@CDIKCKCD@get_instance_handle?$AA@ 100452d4     sfc_debugmsvc80:sfc_api.obj
 0002:000032e8       ??_C@_0BE@GPEMFILK@break_between_times?$AA@ 100452e8     sfc_debugmsvc80:sfc_api.obj
 0002:000032fc       ??_C@_0O@KGONFDDG@active_states?$AA@ 100452fc     sfc_debugmsvc80:sfc_api.obj
 0002:0000330c       ??_C@_0BC@LHALNGBC@state_consistency?$AA@ 1004530c     sfc_debugmsvc80:sfc_api.obj
 0002:00003320       ??_C@_0BE@JNDELHDH@transition_conflict?$AA@ 10045320     sfc_debugmsvc80:sfc_api.obj
 0002:00003334       ??_C@_0L@ECJAFPAF@data_range?$AA@ 10045334     sfc_debugmsvc80:sfc_api.obj
 0002:00003340       ??_C@_0O@NAKDKJME@select_charts?$AA@ 10045340     sfc_debugmsvc80:sfc_api.obj
 0002:00003350       ??_C@_0N@KLDBDGD@select_chart?$AA@ 10045350     sfc_debugmsvc80:sfc_api.obj
 0002:00003360       ??_C@_0O@NJPMKBAC@set_animation?$AA@ 10045360     sfc_debugmsvc80:sfc_api.obj
 0002:00003370       ??_C@_0N@NLCAJHNH@get_coverage?$AA@ 10045370     sfc_debugmsvc80:sfc_api.obj
 0002:00003380       ??_C@_09FLOFKLFE@set_watch?$AA@ 10045380     sfc_debugmsvc80:sfc_api.obj
 0002:0000338c       ??_C@_0O@ECMAEPOC@get_script_id?$AA@ 1004538c     sfc_debugmsvc80:sfc_api.obj
 0002:0000339c       ??_C@_0BJ@KFGPCNG@query_script_breakpoints?$AA@ 1004539c     sfc_debugmsvc80:sfc_api.obj
 0002:000033b8       ??_C@_0BJ@CAAHLJNF@clear_script_breakpoints?$AA@ 100453b8     sfc_debugmsvc80:sfc_api.obj
 0002:000033d4       ??_C@_0BH@BAILBHDP@add_script_breakpoints?$AA@ 100453d4     sfc_debugmsvc80:sfc_api.obj
 0002:000033ec       ??_C@_0BH@KAKDDELG@set_script_breakpoints?$AA@ 100453ec     sfc_debugmsvc80:sfc_api.obj
 0002:00003404       ??_C@_0BE@GAGDJPKA@set_eml_breakpoints?$AA@ 10045404     sfc_debugmsvc80:sfc_api.obj
 0002:00003418       ??_C@_0BA@NHOBHLLJ@set_breakpoints?$AA@ 10045418     sfc_debugmsvc80:sfc_api.obj
 0002:00003428       ??_C@_0BF@GOGOODJG@break_on_state_entry?$AA@ 10045428     sfc_debugmsvc80:sfc_api.obj
 0002:00003440       ??_C@_0BJ@FPOJDFBP@break_on_event_broadcast?$AA@ 10045440     sfc_debugmsvc80:sfc_api.obj
 0002:0000345c       ??_C@_0BF@FJBBAFJ@break_on_chart_entry?$AA@ 1004545c     sfc_debugmsvc80:sfc_api.obj
 0002:00003474       ??_C@_0N@MHHEHLAI@browse_trace?$AA@ 10045474     sfc_debugmsvc80:sfc_api.obj
 0002:00003484       ??_C@_0BB@JEAJMJMI@consistency_info?$AA@ 10045484     sfc_debugmsvc80:sfc_api.obj
 0002:00003498       ??_C@_04MLCEENPJ@whos?$AA@ 10045498     sfc_debugmsvc80:sfc_api.obj
 0002:000034a0       ??_C@_0L@LNIDAIN@watch_data?$AA@ 100454a0     sfc_debugmsvc80:sfc_api.obj
 0002:000034ac       ??_C@_0M@JEJMEFEG@browse_data?$AA@ 100454ac     sfc_debugmsvc80:sfc_api.obj
 0002:000034b8       ??_C@_03HNAFFKGA@get?$AA@  100454b8     sfc_debugmsvc80:sfc_api.obj
 0002:000034bc       ??_C@_05LBOHBHFK@close?$AA@ 100454bc     sfc_debugmsvc80:sfc_api.obj
 0002:000034c4       ??_C@_0BM@ICDFOOIE@set_disable_all_breakpoints?$AA@ 100454c4     sfc_debugmsvc80:sfc_api.obj
 0002:000034e0       ??_C@_0BP@IBIALPGH@disable_all_breakpoints_and_go?$AA@ 100454e0     sfc_debugmsvc80:sfc_api.obj
 0002:00003500       ??_C@_0BJ@BOMFHJBD@is_array_bounds_detected?$AA@ 10045500     sfc_debugmsvc80:sfc_api.obj
 0002:0000351c       ??_C@_0BC@LKOOEAAH@is_cycle_detected?$AA@ 1004551c     sfc_debugmsvc80:sfc_api.obj
 0002:00003530       ??_C@_0P@NIBPNIDJ@stop_debugging?$AA@ 10045530     sfc_debugmsvc80:sfc_api.obj
 0002:00003540       ??_C@_05ELPHFHOI@break?$AA@ 10045540     sfc_debugmsvc80:sfc_api.obj
 0002:00003548       ??_C@_06PLELHCEK@resume?$AA@ 10045548     sfc_debugmsvc80:sfc_api.obj
 0002:00003550       ??_C@_08OKABEMKO@step_out?$AA@ 10045550     sfc_debugmsvc80:sfc_api.obj
 0002:0000355c       ??_C@_09CDNMPCHO@step_over?$AA@ 1004555c     sfc_debugmsvc80:sfc_api.obj
 0002:00003568       ??_C@_02KPEDIMCA@go?$AA@   10045568     sfc_debugmsvc80:sfc_api.obj
 0002:0000356c       ??_C@_0P@MMCMIGPN@debugger_alive?$AA@ 1004556c     sfc_debugmsvc80:sfc_api.obj
 0002:0000357c       ??_C@_0N@GHFBLJDM@machine_load?$AA@ 1004557c     sfc_debugmsvc80:sfc_api.obj
 0002:0000358c       ??_C@_0O@GIBFCMLF@chart_visible?$AA@ 1004558c     sfc_debugmsvc80:sfc_api.obj
 0002:000037a8       ??_C@_05JEMLEKKA@found?$AA@ 100457a8     sfc_debugmsvc80:sfc_api.obj
 0002:000037b0       ??_C@_09KFNMLIAN@sfc_api?4c?$AA@ 100457b0     sfc_debugmsvc80:sfc_api.obj
 0002:000037bc       ??_C@_0N@PFBMDOLG@sf_debug_api?$AA@ 100457bc     sfc_debugmsvc80:sfc_api.obj
 0002:000037cc       ??_C@_07KEAHHHLK@nrhs?$DN?$DN3?$AA@ 100457cc     sfc_debugmsvc80:sfc_api.obj
 0002:000037d4       ??_C@_0BC@HOOMKBNL@mxIsChar?$CIprhs?$FL0?$FN?$CJ?$AA@ 100457d4     sfc_debugmsvc80:sfc_api.obj
 0002:000037e8       ??_C@_0BF@NGLAGMHA@mxIsNumeric?$CIprhs?$FL0?$FN?$CJ?$AA@ 100457e8     sfc_debugmsvc80:sfc_api.obj
 0002:00003800       ??_C@_07IEIELKNG@nrhs?$DO?$DN1?$AA@ 10045800     sfc_debugmsvc80:sfc_api.obj
 0002:00003808       ??_C@_07LNBMEGPL@nrhs?$DN?$DN2?$AA@ 10045808     sfc_debugmsvc80:sfc_api.obj
 0002:00003810       ??_C@_09HBMMCBIO@nrhs?5?$DN?$DN?51?$AA@ 10045810     sfc_debugmsvc80:sfc_api.obj
 0002:0000381c       ??_C@_09FKOBHCEN@nrhs?5?$DN?$DN?52?$AA@ 1004581c     sfc_debugmsvc80:sfc_api.obj
 0002:00003828       ??_C@_09EMKMAIDO@nrhs?5?$DM?$DN?51?$AA@ 10045828     sfc_debugmsvc80:sfc_api.obj
 0002:00003834       ??_C@_07OLEGOBHN@nrhs?$DN?$DN4?$AA@ 10045834     sfc_debugmsvc80:sfc_api.obj
 0002:0000383c       ??_C@_07PCFNNADM@nrhs?$DN?$DN5?$AA@ 1004583c     sfc_debugmsvc80:sfc_api.obj
 0002:00003844       ??_C@_07JGDBBFDI@nrhs?$DN?$DN1?$AA@ 10045844     sfc_debugmsvc80:sfc_api.obj
 0002:0000384c       ??_C@_07KBNAPCKL@nlhs?$DN?$DN1?$AA@ 1004584c     sfc_debugmsvc80:sfc_api.obj
 0002:00003854       ??_C@_08PAMHJLPB@statusOk?$AA@ 10045854     sfc_debugmsvc80:sfc_api.obj
 0002:00003860       ??_C@_07NJHAIDPP@nrhs?$DN?$DN6?$AA@ 10045860     sfc_debugmsvc80:sfc_api.obj
 0002:00003868       ??_C@_0L@EMNHGDGL@nlhs?$DN?$DNnrhs?$AA@ 10045868     sfc_debugmsvc80:sfc_api.obj
 0002:00003874       ??_C@_0BP@PJLNOBEA@sf_debug_using_unified_editors?$AA@ 10045874     sfc_debugmsvc80:sfdb_animation.obj
 0002:00003894       ??_C@_0CE@EANGLCEA@sf_debug_unified_editor_has_diag@ 10045894     sfc_debugmsvc80:sfdb_animation.obj
 0002:000038b8       ??_C@_0P@BLJCAHMG@select_objects?$AA@ 100458b8     sfc_debugmsvc80:sfdb_animation.obj
 0002:000038c8       ??_C@_06CFKBOPCI@states?$AA@ 100458c8     sfc_debugmsvc80:sfdb_animation.obj
 0002:000038d0       ??_C@_0P@KHIIFDEG@instanceHandle?$AA@ 100458d0     sfc_debugmsvc80:sfdb_animation.obj
 0002:000038e0       ??_C@_0P@DEIGLMOE@instanceNumber?$AA@ 100458e0     sfc_debugmsvc80:sfdb_animation.obj
 0002:000038f0       ??_C@_0N@HACOJJON@instanceName?$AA@ 100458f0     sfc_debugmsvc80:sfdb_animation.obj
 0002:00003900       ??_C@_0M@BFNIOHPP@chartNumber?$AA@ 10045900     sfc_debugmsvc80:sfdb_animation.obj
 0002:0000390c       ??_C@_07KGNNMFDL@chartId?$AA@ 1004590c     sfc_debugmsvc80:sfdb_animation.obj
 0002:00003914       ??_C@_09KMHJEGJ@chartName?$AA@ 10045914     sfc_debugmsvc80:sfdb_animation.obj
 0002:00003920       ??_C@_06OOECHJN@charts?$AA@ 10045920     sfc_debugmsvc80:sfdb_animation.obj
 0002:00003928       ??_C@_0O@LOMGGENK@machineNumber?$AA@ 10045928     sfc_debugmsvc80:sfdb_animation.obj
 0002:00003938       ??_C@_09OOJCKABH@machineId?$AA@ 10045938     sfc_debugmsvc80:sfdb_animation.obj
 0002:00003944       ??_C@_0M@OCOCCFP@machineName?$AA@ 10045944     sfc_debugmsvc80:sfdb_animation.obj
 0002:00003950       ??_C@_0CN@CCJEMGOM@?$CIinstance?9?$DOsm?4statePack?$CJ?4length?$DO@ 10045950     sfc_debugmsvc80:sfdb_animation.obj
 0002:00003980       ??_C@_0DC@DKAJIDPA@?$CIinstance?9?$DOsm?4transitionPack?$CJ?4le@ 10045980     sfc_debugmsvc80:sfdb_animation.obj
 0002:000039b4       ??_C@_0BB@EGGLBLCL@sfdb_animation?4c?$AA@ 100459b4     sfc_debugmsvc80:sfdb_animation.obj
 0002:000039c8       ??_C@_0BB@GDGPIGLB@cv_model_enabled?$AA@ 100459c8     sfc_debugmsvc80:cv_sfinterface.obj
 0002:000039dc       ??_C@_09DDDNMFIJ@get_param?$AA@ 100459dc     sfc_debugmsvc80:cv_sfinterface.obj
 0002:000039e8       ??_C@_0L@BODNDPN@CoverageId?$AA@ 100459e8     sfc_debugmsvc80:cv_sfinterface.obj
 0002:000039f4       ??_C@_05IEGMLJMJ@exist?$AA@ 100459f4     sfc_debugmsvc80:cv_sfinterface.obj
 0002:000039fc       ??_C@_02DDEKINOE@cv?$AA@   100459fc     sfc_debugmsvc80:cv_sfinterface.obj
 0002:00003a00       __real@4082c00000000000    10045a00     sfc_debugmsvc80:cv_sfinterface.obj
 0002:00003a08       ??_C@_0O@HGNEKHDK@MatlabVersion?$AA@ 10045a08     sfc_debugmsvc80:cv_sfinterface.obj
 0002:00003a18       ??_C@_0M@IIAIMKFO@status?5?$DN?$DN?50?$AA@ 10045a18     sfc_debugmsvc80:cv_sfinterface.obj
 0002:00003a24       ??_C@_0BB@ENEMAMMG@cv_sfinterface?4c?$AA@ 10045a24     sfc_debugmsvc80:cv_sfinterface.obj
 0002:00003a38       ??_C@_0CC@JMPFGLON@mxGetNumberOfElements?$CIplhs?$FL3?$FN?$CJ?$DN?$DN@ 10045a38     sfc_debugmsvc80:cv_sfinterface.obj
 0002:00003a5c       ??_C@_0P@MCDOIOOF@plhs?$FL3?$FN?5?$CB?$DNNULL?$AA@ 10045a5c     sfc_debugmsvc80:cv_sfinterface.obj
 0002:00003a6c       ??_C@_0P@HAMLCBNF@len?$DM?$DNdataCount?$AA@ 10045a6c     sfc_debugmsvc80:cv_sfinterface.obj
 0002:00003a7c       ??_C@_0BA@FJOAHKLL@len?$DN?$DNtransCount?$AA@ 10045a7c     sfc_debugmsvc80:cv_sfinterface.obj
 0002:00003a8c       ??_C@_0BA@JELAJLGI@len?$DN?$DNstateCount?$AA@ 10045a8c     sfc_debugmsvc80:cv_sfinterface.obj
 0002:00003a9c       ??_C@_0BC@NEFBEIHN@InitChartInstance?$AA@ 10045a9c     sfc_debugmsvc80:cv_sfinterface.obj
 0002:00003ab0       ??_C@_04MMALOABH@cvsf?$AA@ 10045ab0     sfc_debugmsvc80:cv_sfinterface.obj
 0002:00003ab8       ??_C@_0L@GIEKKEHF@InitScript?$AA@ 10045ab8     sfc_debugmsvc80:cv_sfinterface.obj
 0002:00003ac4       ??_C@_08DNDOONPK@sigrange?$AA@ 10045ac4     sfc_debugmsvc80:cv_sfinterface.obj
 0002:00003ad0       ??_C@_0O@KGBGEHIN@MetricEnabled?$AA@ 10045ad0     sfc_debugmsvc80:cv_sfinterface.obj
 0002:00003ae0       ??_C@_0BC@NKPEPJDJ@chart?9?$DOchartId?$CB?$DN0?$AA@ 10045ae0     sfc_debugmsvc80:cv_sfinterface.obj
 0002:00003af4       ??_C@_06LIBBAANI@len?$DN?$DN1?$AA@ 10045af4     sfc_debugmsvc80:sfdb_handle_management.obj
 0002:00003afc       ??_C@_0BJ@IEEBKHME@sfdb_handle_management?4c?$AA@ 10045afc     sfc_debugmsvc80:sfdb_handle_management.obj
 0002:00003b18       ??_C@_06NCGDPKCC@handle?$AA@ 10045b18     sfc_debugmsvc80:sfdb_handle_management.obj
 0002:00003b20       ??_C@_0BP@NAIIDBEE@parentObjectType?$DN?$DNCHART_OBJECT?$AA@ 10045b20     sfc_debugmsvc80:sfdb_handle_management.obj
 0002:00003b40       ??_C@_0BD@JOOOIBOE@get_machine_option?$AA@ 10045b40     sfc_debugmsvc80:sfdb_handle_management.obj
 0002:00003b54       ??_C@_0P@KGLBOIAN@get_machine_id?$AA@ 10045b54     sfc_debugmsvc80:sfdb_handle_management.obj
 0002:00003b64       ??_C@_0N@OBHOGINE@get_chart_id?$AA@ 10045b64     sfc_debugmsvc80:sfdb_handle_management.obj
 0002:00003b74       ??_C@_0BD@DICPGEAM@register_sfunction?$AA@ 10045b74     sfc_debugmsvc80:sfdb_handle_management.obj
 0002:00003b88       ??_C@_0BK@FGANPGOL@get_chart_active_instance?$AA@ 10045b88     sfc_debugmsvc80:sfdb_handle_management.obj
 0002:00003ba4       ??_C@_0BF@FENDCECP@get_chart_visibility?$AA@ 10045ba4     sfc_debugmsvc80:sfdb_handle_management.obj
 0002:00003bbc       ??_C@_0BM@FDGIEMLG@objectProperties?9?$DOlength?$DN?$DN0?$AA@ 10045bbc     sfc_debugmsvc80:sfdb_handle_management.obj
 0002:00003bd8       ??_C@_0CE@KBPIEDGG@?$CI?$CI?$CKobjectProperties?$CJ?$CJ?4length?$DOnum@ 10045bd8     sfc_debugmsvc80:sfdb_handle_management.obj
 0002:00003bfc       ??_C@_0CA@HFGDFECP@len?5?$DN?$DN?5objectProperties?9?$DOlength?$AA@ 10045bfc     sfc_debugmsvc80:sfdb_handle_management.obj
 0002:00003c1c       ??_C@_0P@BHPLCHGJ@get_object_ids?$AA@ 10045c1c     sfc_debugmsvc80:sfdb_handle_management.obj
 0002:00003c2c       ??_C@_0BK@IFFOLHLE@objectProperties?9?$DOsize?$DN?$DN0?$AA@ 10045c2c     sfc_debugmsvc80:sfdb_handle_management.obj
 0002:00003c48       ??_C@_0BO@GFLPGHHM@len?5?$DO?$DN?5objectProperties?9?$DOsize?$AA@ 10045c48     sfc_debugmsvc80:sfdb_handle_management.obj
 0002:00003c68       ??_C@_05GFHEIIDD@event?$AA@ 10045c68     sfc_debugmsvc80:sfdb_handle_management.obj
 0002:00003c70       ??_C@_0M@BFOKCNLA@debug?4watch?$AA@ 10045c70     sfc_debugmsvc80:sfdb_handle_management.obj
 0002:00003c7c       ??_C@_04PJOLNDGD@data?$AA@ 10045c7c     sfc_debugmsvc80:sfdb_handle_management.obj
 0002:00003c84       ??_C@_02EGCJHIOB@id?$AA@   10045c84     sfc_debugmsvc80:sfdb_handle_management.obj
 0002:00003c88       ??_C@_0CE@OILCPIFA@machine?4debug?4disableAllBreakpoi@ 10045c88     sfc_debugmsvc80:sfdb_handle_management.obj
 0002:00003cac       ??_C@_0DA@JMDEGBBH@machine?4debug?4runTimeCheck?4state@ 10045cac     sfc_debugmsvc80:sfdb_handle_management.obj
 0002:00003cdc       ??_C@_0CP@IPHIMGFA@machine?4debug?4runTimeCheck?4trans@ 10045cdc     sfc_debugmsvc80:sfdb_handle_management.obj
 0002:00003d0c       ??_C@_0CL@LENOAAKD@machine?4debug?4runTimeCheck?4dataR@ 10045d0c     sfc_debugmsvc80:sfdb_handle_management.obj
 0002:00003d38       ??_C@_0CK@MBMAMLGE@machine?4debug?4runTimeCheck?4cycle@ 10045d38     sfc_debugmsvc80:sfdb_handle_management.obj
 0002:00003d64       ??_C@_0CA@EGLALCO@machine?4debug?4animation?4enabled?$AA@ 10045d64     sfc_debugmsvc80:sfdb_handle_management.obj
 0002:00003d84       ??_C@_0L@KGLELNDP@transition?$AA@ 10045d84     sfc_debugmsvc80:sfdb_handle_management.obj
 0002:00003d90       ??_C@_06JKPEPHBG@dst?4id?$AA@ 10045d90     sfc_debugmsvc80:sfdb_handle_management.obj
 0002:00003d98       ??_C@_05HDBKIDE@state?$AA@ 10045d98     sfc_debugmsvc80:sfdb_handle_management.obj
 0002:00003da0       ??_C@_0EG@MFIKDIJB@strlen?$CImachineName?$CJ?5?$DM?5sizeof?$CIdeb@ 10045da0     sfc_debugmsvc80:sfdb_handle_management.obj
 0002:00003de8       ??_C@_02GMHACPFF@?$CFu?$AA@ 10045de8     sfc_debugmsvc80:sfdb_data_browse.obj
 0002:00003dec       ??_C@_02NJPGOMH@?$CFf?$AA@ 10045dec     sfc_debugmsvc80:sfdb_data_browse.obj
 0002:00003df0       ??_C@_0BD@PCGIEHBF@sfdb_data_browse?4c?$AA@ 10045df0     sfc_debugmsvc80:sfdb_data_browse.obj
 0002:00003e08       __real@c2a2309ce53fffcd    10045e08     sfc_debugmsvc80:sfdb_data_browse.obj
 0002:00003e10       ??_C@_0CK@JKBFHDPL@result?5?$DN?5mxCreateDoubleMatrix?$CI1?0@ 10045e10     sfc_debugmsvc80:sfdb_data_browse.obj
 0002:00003e3c       ??_C@_0DK@FJDNFCNK@result?5?$DN?5mxCreateDoubleMatrix?$CI1?0@ 10045e3c     sfc_debugmsvc80:sfdb_data_browse.obj
 0002:00003e78       ??_C@_0DL@OAKPHGJG@result?5?$DN?5mxCreateDoubleMatrix?$CI1?0@ 10045e78     sfc_debugmsvc80:sfdb_data_browse.obj
 0002:00003eb4       ??_C@_0N@MNGHGLAH@isFixedPoint?$AA@ 10045eb4     sfc_debugmsvc80:sfdb_data_browse.obj
 0002:00003ec4       ??_C@_06DLEPGFEF@format?$AA@ 10045ec4     sfc_debugmsvc80:sfdb_data_browse.obj
 0002:00003ecc       ??_C@_05MFEJDJP@value?$AA@ 10045ecc     sfc_debugmsvc80:sfdb_data_browse.obj
 0002:00003ed4       ??_C@_05DCCHDMEJ@scope?$AA@ 10045ed4     sfc_debugmsvc80:sfdb_data_browse.obj
 0002:00003edc       ??_C@_0BM@DEONCIBN@stackPtr?5?$DN?$DN?5symScope?9?$DOstack?$AA@ 10045edc     sfc_debugmsvc80:sfdb_symbol_scope.obj
 0002:00003ef8       ??_C@_0BE@PIKAOBFK@sfdb_symbol_scope?4c?$AA@ 10045ef8     sfc_debugmsvc80:sfdb_symbol_scope.obj
 0002:00003f0c       ??_C@_0BP@MJGDIBPE@symScope?9?$DOcurrentScope?5?$CB?$DN?5NULL?$AA@ 10045f0c     sfc_debugmsvc80:sfdb_symbol_scope.obj
 0002:00003f2c       ??_C@_0BP@OCHHKFJA@symScope?9?$DOcurrentScope?5?$DN?$DN?5NULL?$AA@ 10045f2c     sfc_debugmsvc80:sfdb_symbol_scope.obj
 0002:00003f4c       ??_C@_0BM@KCIKANPA@symScope?9?$DOstack?5?$DN?$DN?5stackPtr?$AA@ 10045f4c     sfc_debugmsvc80:sfdb_symbol_scope.obj
 0002:00003f68       ??_C@_0DK@NCABFGD@symScope?9?$DOcurrentScope?5?$CB?$DN?5NULL?5?$CG@ 10045f68     sfc_debugmsvc80:sfdb_symbol_scope.obj
 0002:00003fa4       ??_C@_0DL@LDAGNOEE@currScope?9?$DOsymbolTable?4count?5?$DM?5c@ 10045fa4     sfc_debugmsvc80:sfdb_symbol_scope.obj
 0002:00003fe0       ??_C@_0BK@PHCKFGOO@numDims?5?$DM?$DN?5MAX_DIMENSIONS?$AA@ 10045fe0     sfc_debugmsvc80:sfdb_symbol_scope.obj
 0002:00004000       ??_C@_0EE@CLCFNFKP@Warning?3?5Can?8t?5display?5value?4?5Nu@ 10046000     sfc_debugmsvc80:sfdb_symbol_scope.obj
 0002:00004044       ??_C@_0BB@NPDHFBEP@valuePtr?5?$CB?$DN?5NULL?$AA@ 10046044     sfc_debugmsvc80:sfdb_symbol_scope.obj
 0002:00004058       ??_C@_0O@CHHKIHJE@chart?5?$CB?$DN?5NULL?$AA@ 10046058     sfc_debugmsvc80:sfdb_symbol_scope.obj
 0002:00004068       ??_C@_0CB@PFGINMAC@dataInfo?5?$CG?$CG?5data?5?$CG?$CG?5st?5?$CG?$CG?5i?5?$DO?$DN?50@ 10046068     sfc_debugmsvc80:sfdb_symbol_scope.obj
 0002:00004090       ??_C@_0PC@ENOLANEC@Cannot?5change?5value?5of?5?8?$CFs?8?5at?5d@ 10046090     sfc_debugmsvc80:sfdb_symbol_scope.obj
 0002:00004184       ??_C@_02PINLEBJB@fi?$AA@   10046184     sfc_debugmsvc80:sfdb_symbol_scope.obj
 0002:00004188       ??_C@_06FDANFAAP@sim2fi?$AA@ 10046188     sfc_debugmsvc80:sfdb_symbol_scope.obj
 0002:00004190       ??_C@_0BF@KFJKGDMO@Unrecognized?5symbol?4?$AA@ 10046190     sfc_debugmsvc80:sfdb_symbol_scope.obj
 0002:000041a8       ??_C@_0L@INJGJGAM@?5?$CIcomplex?$CJ?$AA@ 100461a8     sfc_debugmsvc80:sfdb_symbol_scope.obj
 0002:000041b4       ??_C@_0O@MHGLJPE@fixpt?5?$CI?$CFs?5?$CFs?$CJ?$AA@ 100461b4     sfc_debugmsvc80:sfdb_symbol_scope.obj
 0002:000041c4       ??_C@_08FFKICJMO@?$CFs?$CL?$CF?416g?$AA@ 100461c4     sfc_debugmsvc80:sfdb_symbol_scope.obj
 0002:000041d0       ??_C@_02EPPPECEI@SI?$AA@   100461d0     sfc_debugmsvc80:sfdb_symbol_scope.obj
 0002:000041d4       ??_C@_09LKFGHFHF@?$CFs?$CI2?$FO?$CFd?$CJ?$CK?$AA@ 100461d4     sfc_debugmsvc80:sfdb_symbol_scope.obj
 0002:000041e0       ??_C@_06KJECHFDK@?$CF?416g?$CK?$AA@ 100461e0     sfc_debugmsvc80:sfdb_symbol_scope.obj
 0002:000041e8       ??_C@_02IJPJFKDF@ml?$AA@   100461e8     sfc_debugmsvc80:sfdb_symbol_scope.obj
 0002:000041ec       ??_C@_0O@NJOJHIHO@logical?5array?$AA@ 100461ec     sfc_debugmsvc80:sfdb_symbol_scope.obj
 0002:000041fc       ??_C@_0L@MDMKKENH@char?5array?$AA@ 100461fc     sfc_debugmsvc80:sfdb_symbol_scope.obj
 0002:00004208       ??_C@_0N@DGCGENML@uint32?5array?$AA@ 10046208     sfc_debugmsvc80:sfdb_symbol_scope.obj
 0002:00004218       ??_C@_0M@OFFMACLB@int32?5array?$AA@ 10046218     sfc_debugmsvc80:sfdb_symbol_scope.obj
 0002:00004224       ??_C@_0N@JMJKGLLH@uint16?5array?$AA@ 10046224     sfc_debugmsvc80:sfdb_symbol_scope.obj
 0002:00004234       ??_C@_0M@EPOACEMN@int16?5array?$AA@ 10046234     sfc_debugmsvc80:sfdb_symbol_scope.obj
 0002:00004240       ??_C@_0M@NOMKNEGI@uint8?5array?$AA@ 10046240     sfc_debugmsvc80:sfdb_symbol_scope.obj
 0002:0000424c       ??_C@_0L@HCHBFFAP@int8?5array?$AA@ 1004624c     sfc_debugmsvc80:sfdb_symbol_scope.obj
 0002:00004258       ??_C@_0N@KIFCNMIF@single?5array?$AA@ 10046258     sfc_debugmsvc80:sfdb_symbol_scope.obj
 0002:00004268       ??_C@_0N@OFOFFBCM@double?5array?$AA@ 10046268     sfc_debugmsvc80:sfdb_symbol_scope.obj
 0002:00004278       ??_C@_04CADIJHHA@?$CFd?9D?$AA@ 10046278     sfc_debugmsvc80:sfdb_symbol_scope.obj
 0002:00004280       ??_C@_05JIPKJPMI@?$CFs?$CFdx?$AA@ 10046280     sfc_debugmsvc80:sfdb_symbol_scope.obj
 0002:00004288       ??_C@_04BIAHPGJI@?$CFdx1?$AA@ 10046288     sfc_debugmsvc80:sfdb_symbol_scope.obj
 0002:00004290       ??_C@_0BH@GLACFBLP@?5?$CIvariable?5sized?3?5MAX?5?$AA@ 10046290     sfc_debugmsvc80:sfdb_symbol_scope.obj
 0002:000042a8       ??_C@_07CIFAGBMG@unknown?$AA@ 100462a8     sfc_debugmsvc80:sfdb_symbol_scope.obj
 0002:000042b0       ??_C@_05ENKANFLO@class?$AA@ 100462b0     sfc_debugmsvc80:sfdb_symbol_scope.obj
 0002:000042b8       ??_C@_05FBJAGGIG@bytes?$AA@ 100462b8     sfc_debugmsvc80:sfdb_symbol_scope.obj
 0002:000042c0       ??_C@_04MEMAJGDJ@name?$AA@ 100462c0     sfc_debugmsvc80:sfdb_symbol_scope.obj
 0002:000042c8       ??_C@_0CF@NELOECCL@coverageVector?9?$DOlength?$DOcoverageI@ 100462c8     sfc_debugmsvc80:sfdb_coverage.obj
 0002:000042f0       ??_C@_0BA@CBMBNBFB@sfdb_coverage?4c?$AA@ 100462f0     sfc_debugmsvc80:sfdb_coverage.obj
 0002:00004300       ??_C@_0BF@FHBODGMA@transitionActionData?$AA@ 10046300     sfc_debugmsvc80:sfdb_coverage.obj
 0002:00004318       ??_C@_0BE@FOEHFHL@conditionActionData?$AA@ 10046318     sfc_debugmsvc80:sfdb_coverage.obj
 0002:0000432c       ??_C@_09GAFONGPE@guardData?$AA@ 1004632c     sfc_debugmsvc80:sfdb_coverage.obj
 0002:00004338       ??_C@_0M@FEGFDJFB@triggerData?$AA@ 10046338     sfc_debugmsvc80:sfdb_coverage.obj
 0002:00004344       ??_C@_0BE@DDIOFNHN@endTransitionAction?$AA@ 10046344     sfc_debugmsvc80:sfdb_coverage.obj
 0002:00004358       ??_C@_0BD@BICKLGDM@endConditionAction?$AA@ 10046358     sfc_debugmsvc80:sfdb_coverage.obj
 0002:0000436c       ??_C@_08EDILCCFF@endGuard?$AA@ 1004636c     sfc_debugmsvc80:sfdb_coverage.obj
 0002:00004378       ??_C@_0L@CAMMIEPG@endTrigger?$AA@ 10046378     sfc_debugmsvc80:sfdb_coverage.obj
 0002:00004384       ??_C@_0BG@OPNNMDEH@startTransitionAction?$AA@ 10046384     sfc_debugmsvc80:sfdb_coverage.obj
 0002:0000439c       ??_C@_0BF@JNLJEDBC@startConditionAction?$AA@ 1004639c     sfc_debugmsvc80:sfdb_coverage.obj
 0002:000043b4       ??_C@_0L@EHEBHPKB@startGuard?$AA@ 100463b4     sfc_debugmsvc80:sfdb_coverage.obj
 0002:000043c0       ??_C@_0N@EFMGIJMM@startTrigger?$AA@ 100463c0     sfc_debugmsvc80:sfdb_coverage.obj
 0002:000043d0       ??_C@_07HIPHOHKK@endExit?$AA@ 100463d0     sfc_debugmsvc80:sfdb_coverage.obj
 0002:000043d8       ??_C@_09KNNJHBLO@endDuring?$AA@ 100463d8     sfc_debugmsvc80:sfdb_coverage.obj
 0002:000043e4       ??_C@_08IBNIOOHM@endEntry?$AA@ 100463e4     sfc_debugmsvc80:sfdb_coverage.obj
 0002:000043f0       ??_C@_09GJIMAGCM@startExit?$AA@ 100463f0     sfc_debugmsvc80:sfdb_coverage.obj
 0002:000043fc       ??_C@_0M@BHANINOG@startDuring?$AA@ 100463fc     sfc_debugmsvc80:sfdb_coverage.obj
 0002:00004408       ??_C@_0L@IFBCLDII@startEntry?$AA@ 10046408     sfc_debugmsvc80:sfdb_coverage.obj
 0002:00004414       ??_C@_08PPNNBHPL@exitData?$AA@ 10046414     sfc_debugmsvc80:sfdb_coverage.obj
 0002:00004420       ??_C@_0L@LKGLEJGJ@duringData?$AA@ 10046420     sfc_debugmsvc80:sfdb_coverage.obj
 0002:0000442c       ??_C@_09MBCNPEGP@entryData?$AA@ 1004642c     sfc_debugmsvc80:sfdb_coverage.obj
 0002:00004438       ??_C@_09BJOJOOIO@instances?$AA@ 10046438     sfc_debugmsvc80:sfdb_coverage.obj
 0002:00004444       ??_C@_0M@LCNCLDLF@transitions?$AA@ 10046444     sfc_debugmsvc80:sfdb_coverage.obj
 0002:00004450       ??_C@_0DN@FAEHHEAM@?$CIscript?9?$DObm?4breakpoints?$CJ?4length?$DO@ 10046450     sfc_debugmsvc80:sfdb_breakpoints.obj
 0002:00004490       ??_C@_0BD@BABBLJFB@sfdb_breakpoints?4c?$AA@ 10046490     sfc_debugmsvc80:sfdb_breakpoints.obj
 0002:000044a4       ??_C@_0P@IGHKOFID@get_script_bps?$AA@ 100464a4     sfc_debugmsvc80:sfdb_breakpoints.obj
 0002:000044b4       ??_C@_0BA@ICOJJJDD@get_all_scripts?$AA@ 100464b4     sfc_debugmsvc80:sfdb_breakpoints.obj
 0002:000044c8       ??_C@_0EI@EDDFBGGP@?$CIunsigned?5int?$CJ?$CImxGetM?$CIplhs?$FL0?$FN?$CJ?5?$CK@ 100464c8     sfc_debugmsvc80:sfdb_breakpoints.obj
 0002:00004510       ??_C@_0BE@PNADEEOB@get_eml_line_counts?$AA@ 10046510     sfc_debugmsvc80:sfdb_breakpoints.obj
 0002:00004524       ??_C@_0CC@JPCLBDPC@mxGetNumberOfElements?$CIplhs?$FL0?$FN?$CJ?$DN?$DN@ 10046524     sfc_debugmsvc80:sfdb_breakpoints.obj
 0002:00004548       ??_C@_0P@EHJHKHLL@get_global_bps?$AA@ 10046548     sfc_debugmsvc80:sfdb_breakpoints.obj
 0002:00004558       ??_C@_0CE@NADCJCF@?$CIchart?9?$DObm?4chart?$FLtagType?$FN?$CJ?4lengt@ 10046558     sfc_debugmsvc80:sfdb_breakpoints.obj
 0002:0000457c       ??_C@_0DB@PCFIPMMH@?$CImachine?9?$DObm?4event?$FLtagType?$FN?$CJ?4len@ 1004657c     sfc_debugmsvc80:sfdb_breakpoints.obj
 0002:000045b0       ??_C@_0CP@FENPPAOI@?$CIchart?9?$DObm?4event?$FLtagType?$FN?$CJ?4lengt@ 100465b0     sfc_debugmsvc80:sfdb_breakpoints.obj
 0002:000045e0       ??_C@_0DE@GNPGALGC@?$CIchart?9?$DObm?4transition?$FLtagType?$FN?$CJ?4@ 100465e0     sfc_debugmsvc80:sfdb_breakpoints.obj
 0002:00004614       ??_C@_0CP@JOFCMAIP@?$CIchart?9?$DObm?4state?$FLtagType?$FN?$CJ?4lengt@ 10046614     sfc_debugmsvc80:sfdb_breakpoints.obj
 0002:00004644       ??_C@_0CH@EKAIFOIL@numCols?5?$DN?$DN?5TOTAL_EVENT_BREAKPOIN@ 10046644     sfc_debugmsvc80:sfdb_breakpoints.obj
 0002:0000466c       ??_C@_0CA@BECONEOF@numRows?5?$DN?$DN?5machine?9?$DOevent?4count?$AA@ 1004666c     sfc_debugmsvc80:sfdb_breakpoints.obj
 0002:0000468c       ??_C@_07HCEBIAFG@get_bps?$AA@ 1004668c     sfc_debugmsvc80:sfdb_breakpoints.obj
 0002:00004694       ??_C@_0N@CNOINHPD@numCols?5?$DN?$DN?51?$AA@ 10046694     sfc_debugmsvc80:sfdb_breakpoints.obj
 0002:000046a4       ??_C@_0M@NNPJEEAE@get_eml_bps?$AA@ 100466a4     sfc_debugmsvc80:sfdb_breakpoints.obj
 0002:000046b0       ??_C@_0BO@CDPAPHEM@numRows?5?$DN?$DN?5chart?9?$DOevent?4count?$AA@ 100466b0     sfc_debugmsvc80:sfdb_breakpoints.obj
 0002:000046d0       ??_C@_0CM@FFJFHNEO@numCols?5?$DN?$DN?5TOTAL_TRANSITION_BREA@ 100466d0     sfc_debugmsvc80:sfdb_breakpoints.obj
 0002:000046fc       ??_C@_0CD@IOIMPEBN@numRows?5?$DN?$DN?5chart?9?$DOtransition?4cou@ 100466fc     sfc_debugmsvc80:sfdb_breakpoints.obj
 0002:00004720       ??_C@_0CH@JEIBGOOJ@numCols?5?$DN?$DN?5TOTAL_STATE_BREAKPOIN@ 10046720     sfc_debugmsvc80:sfdb_breakpoints.obj
 0002:00004748       ??_C@_0BO@BIKNFPLB@numRows?5?$DN?$DN?5chart?9?$DOstate?4count?$AA@ 10046748     sfc_debugmsvc80:sfdb_breakpoints.obj
 0002:00004768       ??_C@_0CH@BNLENKGD@numCols?5?$DN?$DN?5TOTAL_CHART_BREAKPOIN@ 10046768     sfc_debugmsvc80:sfdb_breakpoints.obj
 0002:00004790       ??_C@_0N@MEFFBAFI@numRows?5?$DN?$DN?51?$AA@ 10046790     sfc_debugmsvc80:sfdb_breakpoints.obj
 0002:000047a0       ??_C@_0BJ@BLHBHILO@sfdb_state_consistency?4c?$AA@ 100467a0     sfc_debugmsvc80:sfdb_state_consistency.obj
 0002:000047bc       ??_C@_09LHFAMEGK@errorType?$AA@ 100467bc     sfc_debugmsvc80:sfdb_state_consistency.obj
 0002:000047c8       ??_C@_08DLAIKNBK@objectId?$AA@ 100467c8     sfc_debugmsvc80:sfdb_state_consistency.obj
 0002:000047d4       ??_C@_0L@GODCDFEF@objectType?$AA@ 100467d4     sfc_debugmsvc80:sfdb_state_consistency.obj
 0002:000047e0       ??_C@_0L@CCGENCKP@errorStack?$AA@ 100467e0     sfc_debugmsvc80:sfdb_state_consistency.obj
 0002:000047ec       ??_C@_0O@PPHMCEKO@cycleDetected?$AA@ 100467ec     sfc_debugmsvc80:sfdb_call_stack.obj
 0002:000047fc       ??_C@_0N@MGKMJLEK@cycleStarted?$AA@ 100467fc     sfc_debugmsvc80:sfdb_call_stack.obj
 0002:0000480c       ??_C@_07BNCILGOA@tagType?$AA@ 1004680c     sfc_debugmsvc80:sfdb_call_stack.obj
 0002:00004814       ??_C@_0L@POKIGEMP@eventScope?$AA@ 10046814     sfc_debugmsvc80:sfdb_call_stack.obj
 0002:00004820       ??_C@_0M@LKJJPLIC@traceVector?$AA@ 10046820     sfc_debugmsvc80:sfdb_call_stack.obj
 0002:00004830       ??_C@_0EC@MGCLADPL@?$CIinstance?9?$DOcycleDetection?4transi@ 10046830     sfc_debugmsvc80:sfdb_cycle_detection.obj
 0002:00004874       ??_C@_0BH@ELCAAKDD@sfdb_cycle_detection?4c?$AA@ 10046874     sfc_debugmsvc80:sfdb_cycle_detection.obj
 0002:0000488c       ??_C@_0O@PICIAFIK@newNode?$CB?$DNNULL?$AA@ 1004688c     sfc_debugmsvc80:sfdb_cycle_detection.obj
 0002:0000489c       __pDefaultRawDllMain       1004689c     MSVCRT:crtdll.obj
 0002:0000489c       __pRawDllMain              1004689c     MSVCRT:crtdll.obj
 0002:000048a8       ?ProcessDetach@NativeDll@<CrtImplementationDetails>@@0IB 100468a8     MSVCRT:tncleanup.obj
 0002:000048ac       ?ProcessAttach@NativeDll@<CrtImplementationDetails>@@0IB 100468ac     MSVCRT:tncleanup.obj
 0002:000048b0       ?ThreadAttach@NativeDll@<CrtImplementationDetails>@@0IB 100468b0     MSVCRT:tncleanup.obj
 0002:000048b4       ?ThreadDetach@NativeDll@<CrtImplementationDetails>@@0IB 100468b4     MSVCRT:tncleanup.obj
 0002:000048b8       ?ProcessVerifier@NativeDll@<CrtImplementationDetails>@@0IB 100468b8     MSVCRT:tncleanup.obj
 0002:000048c0       __load_config_used         100468c0     MSVCRT:loadcfg.obj
 0002:00004910       ___safe_se_handler_table   10046910     <linker-defined>
 0002:00004914       ___rtc_iaa                 10046914     MSVCRT:_initsect_.obj
 0002:00004918       ___rtc_izz                 10046918     MSVCRT:_initsect_.obj
 0002:0000491c       ___rtc_taa                 1004691c     MSVCRT:_initsect_.obj
 0002:00004920       ___rtc_tzz                 10046920     MSVCRT:_initsect_.obj
 0002:0000498c       __IMPORT_DESCRIPTOR_libmx  1004698c     libmx:libmx.dll
 0002:000049a0       __IMPORT_DESCRIPTOR_libmex 100469a0     libmex:libmex.dll
 0002:000049b4       __IMPORT_DESCRIPTOR_libfixedpoint 100469b4     libfixedpoint:libfixedpoint.dll
 0002:000049c8       __IMPORT_DESCRIPTOR_libut  100469c8     libut:libut.dll
 0002:000049dc       __IMPORT_DESCRIPTOR_libmwmathutil 100469dc     libmwmathutil:libmwmathutil.dll
 0002:000049f0       __IMPORT_DESCRIPTOR_libemlrt 100469f0     libemlrt:libemlrt.dll
 0002:00004a04       __IMPORT_DESCRIPTOR_libmwblascompat32 10046a04     libmwblascompat32:libmwblascompat32.dll
 0002:00004a18       __IMPORT_DESCRIPTOR_MSVCR100 10046a18     MSVCRT:MSVCR100.dll
 0002:00004a2c       __IMPORT_DESCRIPTOR_KERNEL32 10046a2c     kernel32:KERNEL32.dll
 0002:00004a40       __NULL_IMPORT_DESCRIPTOR   10046a40     libmx:libmx.dll
 0003:000056cc       _DYNAMIC_DIMENSION         1004d6cc     Cinematica_JA_reducido_sfun_registry.obj
 0003:000062f8       _emlrtContextGlobal        1004e2f8     sfc_mexmsvc80:sfc_mex.obj
 0003:00006370       ___security_cookie         1004e370     MSVCRT:gs_cookie.obj
 0003:00006374       ___security_cookie_complement 1004e374     MSVCRT:gs_cookie.obj
 0003:00006380       ___native_dllmain_reason   1004e380     MSVCRT:natstart.obj
 0003:00006384       ___native_vcclrit_reason   1004e384     MSVCRT:natstart.obj
 0003:000078c8       _sSFDebuggerInitialized    1004f8c8     sfc_debugmsvc80:sfcdebug.obj
 0003:0000867c       ?__type_info_root_node@@3U__type_info_node@@A 1005067c     MSVCRT:tncleanup.obj
 0003:00008688       __sfTime_                  10050688     <common>
 0003:00008690       __Cinematica_JA_reducidoMachineNumber_ 10050690     <common>
 0003:000086a0       _gSfComplexDataTypeOffsets 100506a0     <common>
 0003:00008700       _gSfDataTypeOffsets        10050700     <common>
 0003:00008748       _gMaskBits                 10050748     <common>
 0003:00008750       ___native_startup_state    10050750     <common>
 0003:00008754       ___native_startup_lock     10050754     <common>
 0003:00008758       ___onexitend               10050758     <common>
 0003:0000875c       ___onexitbegin             1005075c     <common>
 0003:00008760       ___sse2_available          10050760     <common>
 0003:00008764       ___dyn_tls_init_callback   10050764     <common>

 entry point at        0001:00040299

 Static symbols

 0001:000004e0       _get_sim_state_c1_Cinematica_JA_reducido 100014e0 f   c1_Cinematica_JA_reducido.obj
 0001:00000630       _sf_get_sim_state_info_c1_Cinematica_JA_reducido 10001630 f   c1_Cinematica_JA_reducido.obj
 0001:000007d0       _set_sim_state_c1_Cinematica_JA_reducido 100017d0 f   c1_Cinematica_JA_reducido.obj
 0001:000008c0       _c1_update_debugger_state_c1_Cinematica_JA_reducido 100018c0 f   c1_Cinematica_JA_reducido.obj
 0001:000008d0       _c1_emlrt_marshallIn       100018d0 f   c1_Cinematica_JA_reducido.obj
 0001:00000920       _c1_b_emlrt_marshallIn     10001920 f   c1_Cinematica_JA_reducido.obj
 0001:000009b0       _c1_e_emlrt_marshallIn     100019b0 f   c1_Cinematica_JA_reducido.obj
 0001:00000a00       _c1_f_emlrt_marshallIn     10001a00 f   c1_Cinematica_JA_reducido.obj
 0001:00000ab0       _mdlProcessParameters_c1_Cinematica_JA_reducido 10001ab0 f   c1_Cinematica_JA_reducido.obj
 0001:00000b50       _initialize_params_c1_Cinematica_JA_reducido 10001b50 f   c1_Cinematica_JA_reducido.obj
 0001:00000b60       _mdlSetWorkWidths_c1_Cinematica_JA_reducido 10001b60 f   c1_Cinematica_JA_reducido.obj
 0001:00000e00       _mdlStart_c1_Cinematica_JA_reducido 10001e00 f   c1_Cinematica_JA_reducido.obj
 0001:00000f80       _init_dsm_address_info     10001f80 f   c1_Cinematica_JA_reducido.obj
 0001:00000f90       _chart_debug_initialization 10001f90 f   c1_Cinematica_JA_reducido.obj
 0001:00001370       _init_script_number_translation 10002370 f   c1_Cinematica_JA_reducido.obj
 0001:00001380       _c1_sf_marshallOut         10002380 f   c1_Cinematica_JA_reducido.obj
 0001:00001460       _c1_sf_marshallIn          10002460 f   c1_Cinematica_JA_reducido.obj
 0001:00001510       _c1_b_sf_marshallOut       10002510 f   c1_Cinematica_JA_reducido.obj
 0001:000015e0       _sf_opaque_initialize_c1_Cinematica_JA_reducido 100025e0 f   c1_Cinematica_JA_reducido.obj
 0001:00001610       _initialize_c1_Cinematica_JA_reducido 10002610 f   c1_Cinematica_JA_reducido.obj
 0001:00001640       _sf_opaque_enable_c1_Cinematica_JA_reducido 10002640 f   c1_Cinematica_JA_reducido.obj
 0001:00001660       _enable_c1_Cinematica_JA_reducido 10002660 f   c1_Cinematica_JA_reducido.obj
 0001:00001680       _sf_opaque_disable_c1_Cinematica_JA_reducido 10002680 f   c1_Cinematica_JA_reducido.obj
 0001:000016a0       _disable_c1_Cinematica_JA_reducido 100026a0 f   c1_Cinematica_JA_reducido.obj
 0001:000016c0       _sf_opaque_gateway_c1_Cinematica_JA_reducido 100026c0 f   c1_Cinematica_JA_reducido.obj
 0001:000016e0       _sf_c1_Cinematica_JA_reducido 100026e0 f   c1_Cinematica_JA_reducido.obj
 0001:00001c80       _c1_c_sf_marshallOut       10002c80 f   c1_Cinematica_JA_reducido.obj
 0001:00001cf0       _c1_b_sf_marshallIn        10002cf0 f   c1_Cinematica_JA_reducido.obj
 0001:00001d70       _c1_c_emlrt_marshallIn     10002d70 f   c1_Cinematica_JA_reducido.obj
 0001:00001dc0       _sf_opaque_get_sim_state_c1_Cinematica_JA_reducido 10002dc0 f   c1_Cinematica_JA_reducido.obj
 0001:00001de0       _sf_opaque_set_sim_state_c1_Cinematica_JA_reducido 10002de0 f   c1_Cinematica_JA_reducido.obj
 0001:00001e00       _sf_opaque_terminate_c1_Cinematica_JA_reducido 10002e00 f   c1_Cinematica_JA_reducido.obj
 0001:00001e70       _finalize_c1_Cinematica_JA_reducido 10002e70 f   c1_Cinematica_JA_reducido.obj
 0001:00001e80       _sf_opaque_init_subchart_simstructs 10002e80 f   c1_Cinematica_JA_reducido.obj
 0001:00001ea0       _initSimStructsc1_Cinematica_JA_reducido 10002ea0 f   c1_Cinematica_JA_reducido.obj
 0001:00001eb0       _mdlRTW_c1_Cinematica_JA_reducido 10002eb0 f   c1_Cinematica_JA_reducido.obj
 0001:00002230       _c2_info_helper            10003230 f   c2_Cinematica_JA_reducido.obj
 0001:000041a0       _get_sim_state_c2_Cinematica_JA_reducido 100051a0 f   c2_Cinematica_JA_reducido.obj
 0001:00004370       _sf_get_sim_state_info_c2_Cinematica_JA_reducido 10005370 f   c2_Cinematica_JA_reducido.obj
 0001:00004510       _set_sim_state_c2_Cinematica_JA_reducido 10005510 f   c2_Cinematica_JA_reducido.obj
 0001:00004670       _c2_update_debugger_state_c2_Cinematica_JA_reducido 10005670 f   c2_Cinematica_JA_reducido.obj
 0001:00004680       _c2_emlrt_marshallIn       10005680 f   c2_Cinematica_JA_reducido.obj
 0001:000046d0       _c2_b_emlrt_marshallIn     100056d0 f   c2_Cinematica_JA_reducido.obj
 0001:00004750       _c2_l_emlrt_marshallIn     10005750 f   c2_Cinematica_JA_reducido.obj
 0001:000047a0       _c2_m_emlrt_marshallIn     100057a0 f   c2_Cinematica_JA_reducido.obj
 0001:00004850       _mdlProcessParameters_c2_Cinematica_JA_reducido 10005850 f   c2_Cinematica_JA_reducido.obj
 0001:000048f0       _initialize_params_c2_Cinematica_JA_reducido 100058f0 f   c2_Cinematica_JA_reducido.obj
 0001:00004900       _mdlSetWorkWidths_c2_Cinematica_JA_reducido 10005900 f   c2_Cinematica_JA_reducido.obj
 0001:00004bb0       _mdlStart_c2_Cinematica_JA_reducido 10005bb0 f   c2_Cinematica_JA_reducido.obj
 0001:00004d30       _init_dsm_address_info     10005d30 f   c2_Cinematica_JA_reducido.obj
 0001:00004d40       _chart_debug_initialization 10005d40 f   c2_Cinematica_JA_reducido.obj
 0001:00005270       _init_script_number_translation 10006270 f   c2_Cinematica_JA_reducido.obj
 0001:00005280       _c2_sf_marshallOut         10006280 f   c2_Cinematica_JA_reducido.obj
 0001:00005350       _c2_sf_marshallIn          10006350 f   c2_Cinematica_JA_reducido.obj
 0001:00005400       _sf_opaque_initialize_c2_Cinematica_JA_reducido 10006400 f   c2_Cinematica_JA_reducido.obj
 0001:00005430       _initialize_c2_Cinematica_JA_reducido 10006430 f   c2_Cinematica_JA_reducido.obj
 0001:00005460       _sf_opaque_enable_c2_Cinematica_JA_reducido 10006460 f   c2_Cinematica_JA_reducido.obj
 0001:00005480       _enable_c2_Cinematica_JA_reducido 10006480 f   c2_Cinematica_JA_reducido.obj
 0001:000054a0       _sf_opaque_disable_c2_Cinematica_JA_reducido 100064a0 f   c2_Cinematica_JA_reducido.obj
 0001:000054c0       _disable_c2_Cinematica_JA_reducido 100064c0 f   c2_Cinematica_JA_reducido.obj
 0001:000054e0       _sf_opaque_gateway_c2_Cinematica_JA_reducido 100064e0 f   c2_Cinematica_JA_reducido.obj
 0001:00005500       _sf_c2_Cinematica_JA_reducido 10006500 f   c2_Cinematica_JA_reducido.obj
 0001:00005700       _c2_chartstep_c2_Cinematica_JA_reducido 10006700 f   c2_Cinematica_JA_reducido.obj
 0001:00009180       _c2_b_sf_marshallOut       1000a180 f   c2_Cinematica_JA_reducido.obj
 0001:000091f0       _c2_b_sf_marshallIn        1000a1f0 f   c2_Cinematica_JA_reducido.obj
 0001:00009270       _c2_c_emlrt_marshallIn     1000a270 f   c2_Cinematica_JA_reducido.obj
 0001:000092c0       _c2_c_sf_marshallOut       1000a2c0 f   c2_Cinematica_JA_reducido.obj
 0001:00009460       _c2_c_sf_marshallIn        1000a460 f   c2_Cinematica_JA_reducido.obj
 0001:00009560       _c2_d_emlrt_marshallIn     1000a560 f   c2_Cinematica_JA_reducido.obj
 0001:000095f0       _c2_d_sf_marshallOut       1000a5f0 f   c2_Cinematica_JA_reducido.obj
 0001:00009780       _c2_d_sf_marshallIn        1000a780 f   c2_Cinematica_JA_reducido.obj
 0001:00009890       _c2_e_emlrt_marshallIn     1000a890 f   c2_Cinematica_JA_reducido.obj
 0001:00009920       _c2_e_sf_marshallOut       1000a920 f   c2_Cinematica_JA_reducido.obj
 0001:00009aa0       _c2_e_sf_marshallIn        1000aaa0 f   c2_Cinematica_JA_reducido.obj
 0001:00009b90       _c2_f_emlrt_marshallIn     1000ab90 f   c2_Cinematica_JA_reducido.obj
 0001:00009c20       _c2_f_sf_marshallOut       1000ac20 f   c2_Cinematica_JA_reducido.obj
 0001:00009d70       _c2_f_sf_marshallIn        1000ad70 f   c2_Cinematica_JA_reducido.obj
 0001:00009e50       _c2_g_emlrt_marshallIn     1000ae50 f   c2_Cinematica_JA_reducido.obj
 0001:00009ee0       _c2_g_sf_marshallOut       1000aee0 f   c2_Cinematica_JA_reducido.obj
 0001:00009fb0       _c2_g_sf_marshallIn        1000afb0 f   c2_Cinematica_JA_reducido.obj
 0001:0000a060       _c2_h_emlrt_marshallIn     1000b060 f   c2_Cinematica_JA_reducido.obj
 0001:0000a0e0       _c2_atan2                  1000b0e0 f   c2_Cinematica_JA_reducido.obj
 0001:0000a120       _c2_eml_scalar_eg          1000b120 f   c2_Cinematica_JA_reducido.obj
 0001:0000a130       _c2_mpower                 1000b130 f   c2_Cinematica_JA_reducido.obj
 0001:0000a160       _c2_power                  1000b160 f   c2_Cinematica_JA_reducido.obj
 0001:0000a1f0       _c2_eml_error              1000b1f0 f   c2_Cinematica_JA_reducido.obj
 0001:0000a2a0       _c2_inv                    1000b2a0 f   c2_Cinematica_JA_reducido.obj
 0001:0000a6d0       _c2_inv3x3                 1000b6d0 f   c2_Cinematica_JA_reducido.obj
 0001:0000b4c0       _c2_norm                   1000c4c0 f   c2_Cinematica_JA_reducido.obj
 0001:0000b680       _c2_eml_warning            1000c680 f   c2_Cinematica_JA_reducido.obj
 0001:0000b730       _c2_b_eml_warning          1000c730 f   c2_Cinematica_JA_reducido.obj
 0001:0000b850       _c2_eye                    1000c850 f   c2_Cinematica_JA_reducido.obj
 0001:0000b970       _c2_b_eml_scalar_eg        1000c970 f   c2_Cinematica_JA_reducido.obj
 0001:0000b980       _c2_b_inv                  1000c980 f   c2_Cinematica_JA_reducido.obj
 0001:0000be20       _c2_invNxN                 1000ce20 f   c2_Cinematica_JA_reducido.obj
 0001:0000c720       _c2_b_norm                 1000d720 f   c2_Cinematica_JA_reducido.obj
 0001:0000c8e0       _c2_i_emlrt_marshallIn     1000d8e0 f   c2_Cinematica_JA_reducido.obj
 0001:0000c930       _c2_j_emlrt_marshallIn     1000d930 f   c2_Cinematica_JA_reducido.obj
 0001:0000c9b0       _c2_b_sqrt                 1000d9b0 f   c2_Cinematica_JA_reducido.obj
 0001:0000c9f0       _c2_b_eml_error            1000d9f0 f   c2_Cinematica_JA_reducido.obj
 0001:0000caa0       _c2_b_eml_matlab_zgetrf    1000daa0 f   c2_Cinematica_JA_reducido.obj
 0001:0000d1c0       _c2_eps                    1000e1c0 f   c2_Cinematica_JA_reducido.obj
 0001:0000d1d0       _c2_eml_ixamax             1000e1d0 f   c2_Cinematica_JA_reducido.obj
 0001:0000d250       _c2_ceval_ixamax           1000e250 f   c2_Cinematica_JA_reducido.obj
 0001:0000d2d0       _c2_b_ceval_xswap          1000e2d0 f   c2_Cinematica_JA_reducido.obj
 0001:0000d3b0       _c2_b_ceval_xger           1000e3b0 f   c2_Cinematica_JA_reducido.obj
 0001:0000d500       _c2_d_eml_blas_xtrsm       1000e500 f   c2_Cinematica_JA_reducido.obj
 0001:0000dec0       _c2_e_eml_blas_xtrsm       1000eec0 f   c2_Cinematica_JA_reducido.obj
 0001:0000e6b0       _c2_c_eml_scalar_eg        1000f6b0 f   c2_Cinematica_JA_reducido.obj
 0001:0000e6c0       _c2_f_eml_blas_xtrsm       1000f6c0 f   c2_Cinematica_JA_reducido.obj
 0001:0000f090       _sf_opaque_get_sim_state_c2_Cinematica_JA_reducido 10010090 f   c2_Cinematica_JA_reducido.obj
 0001:0000f0b0       _sf_opaque_set_sim_state_c2_Cinematica_JA_reducido 100100b0 f   c2_Cinematica_JA_reducido.obj
 0001:0000f0d0       _sf_opaque_terminate_c2_Cinematica_JA_reducido 100100d0 f   c2_Cinematica_JA_reducido.obj
 0001:0000f140       _finalize_c2_Cinematica_JA_reducido 10010140 f   c2_Cinematica_JA_reducido.obj
 0001:0000f150       _sf_opaque_init_subchart_simstructs 10010150 f   c2_Cinematica_JA_reducido.obj
 0001:0000f170       _initSimStructsc2_Cinematica_JA_reducido 10010170 f   c2_Cinematica_JA_reducido.obj
 0001:0000f180       _mdlRTW_c2_Cinematica_JA_reducido 10010180 f   c2_Cinematica_JA_reducido.obj
 0001:0000f9c0       _get_sim_state_c3_Cinematica_JA_reducido 100109c0 f   c3_Cinematica_JA_reducido.obj
 0001:0000fc10       _sf_get_sim_state_info_c3_Cinematica_JA_reducido 10010c10 f   c3_Cinematica_JA_reducido.obj
 0001:0000fdb0       _set_sim_state_c3_Cinematica_JA_reducido 10010db0 f   c3_Cinematica_JA_reducido.obj
 0001:0000ff30       _c3_update_debugger_state_c3_Cinematica_JA_reducido 10010f30 f   c3_Cinematica_JA_reducido.obj
 0001:0000ff40       _c3_emlrt_marshallIn       10010f40 f   c3_Cinematica_JA_reducido.obj
 0001:0000ff90       _c3_b_emlrt_marshallIn     10010f90 f   c3_Cinematica_JA_reducido.obj
 0001:0000ffe0       _c3_d_emlrt_marshallIn     10010fe0 f   c3_Cinematica_JA_reducido.obj
 0001:00010030       _c3_e_emlrt_marshallIn     10011030 f   c3_Cinematica_JA_reducido.obj
 0001:000100e0       _mdlProcessParameters_c3_Cinematica_JA_reducido 100110e0 f   c3_Cinematica_JA_reducido.obj
 0001:00010180       _initialize_params_c3_Cinematica_JA_reducido 10011180 f   c3_Cinematica_JA_reducido.obj
 0001:00010190       _mdlSetWorkWidths_c3_Cinematica_JA_reducido 10011190 f   c3_Cinematica_JA_reducido.obj
 0001:00010430       _mdlStart_c3_Cinematica_JA_reducido 10011430 f   c3_Cinematica_JA_reducido.obj
 0001:000105b0       _init_dsm_address_info     100115b0 f   c3_Cinematica_JA_reducido.obj
 0001:000105c0       _chart_debug_initialization 100115c0 f   c3_Cinematica_JA_reducido.obj
 0001:00010b70       _init_script_number_translation 10011b70 f   c3_Cinematica_JA_reducido.obj
 0001:00010b80       _c3_sf_marshallOut         10011b80 f   c3_Cinematica_JA_reducido.obj
 0001:00010bf0       _c3_sf_marshallIn          10011bf0 f   c3_Cinematica_JA_reducido.obj
 0001:00010c70       _c3_b_sf_marshallOut       10011c70 f   c3_Cinematica_JA_reducido.obj
 0001:00010d40       _sf_opaque_initialize_c3_Cinematica_JA_reducido 10011d40 f   c3_Cinematica_JA_reducido.obj
 0001:00010d70       _initialize_c3_Cinematica_JA_reducido 10011d70 f   c3_Cinematica_JA_reducido.obj
 0001:00010da0       _sf_opaque_enable_c3_Cinematica_JA_reducido 10011da0 f   c3_Cinematica_JA_reducido.obj
 0001:00010dc0       _enable_c3_Cinematica_JA_reducido 10011dc0 f   c3_Cinematica_JA_reducido.obj
 0001:00010de0       _sf_opaque_disable_c3_Cinematica_JA_reducido 10011de0 f   c3_Cinematica_JA_reducido.obj
 0001:00010e00       _disable_c3_Cinematica_JA_reducido 10011e00 f   c3_Cinematica_JA_reducido.obj
 0001:00010e20       _sf_opaque_gateway_c3_Cinematica_JA_reducido 10011e20 f   c3_Cinematica_JA_reducido.obj
 0001:00010e40       _sf_c3_Cinematica_JA_reducido 10011e40 f   c3_Cinematica_JA_reducido.obj
 0001:00011320       _sf_opaque_get_sim_state_c3_Cinematica_JA_reducido 10012320 f   c3_Cinematica_JA_reducido.obj
 0001:00011340       _sf_opaque_set_sim_state_c3_Cinematica_JA_reducido 10012340 f   c3_Cinematica_JA_reducido.obj
 0001:00011360       _sf_opaque_terminate_c3_Cinematica_JA_reducido 10012360 f   c3_Cinematica_JA_reducido.obj
 0001:000113d0       _finalize_c3_Cinematica_JA_reducido 100123d0 f   c3_Cinematica_JA_reducido.obj
 0001:000113e0       _sf_opaque_init_subchart_simstructs 100123e0 f   c3_Cinematica_JA_reducido.obj
 0001:00011400       _initSimStructsc3_Cinematica_JA_reducido 10012400 f   c3_Cinematica_JA_reducido.obj
 0001:00011410       _mdlRTW_c3_Cinematica_JA_reducido 10012410 f   c3_Cinematica_JA_reducido.obj
 0001:00011940       _get_sim_state_c4_Cinematica_JA_reducido 10012940 f   c4_Cinematica_JA_reducido.obj
 0001:00011a90       _sf_get_sim_state_info_c4_Cinematica_JA_reducido 10012a90 f   c4_Cinematica_JA_reducido.obj
 0001:00011c30       _set_sim_state_c4_Cinematica_JA_reducido 10012c30 f   c4_Cinematica_JA_reducido.obj
 0001:00011d20       _c4_update_debugger_state_c4_Cinematica_JA_reducido 10012d20 f   c4_Cinematica_JA_reducido.obj
 0001:00011d30       _c4_emlrt_marshallIn       10012d30 f   c4_Cinematica_JA_reducido.obj
 0001:00011d80       _c4_b_emlrt_marshallIn     10012d80 f   c4_Cinematica_JA_reducido.obj
 0001:00011e10       _c4_e_emlrt_marshallIn     10012e10 f   c4_Cinematica_JA_reducido.obj
 0001:00011e60       _c4_f_emlrt_marshallIn     10012e60 f   c4_Cinematica_JA_reducido.obj
 0001:00011f10       _mdlProcessParameters_c4_Cinematica_JA_reducido 10012f10 f   c4_Cinematica_JA_reducido.obj
 0001:00011fb0       _initialize_params_c4_Cinematica_JA_reducido 10012fb0 f   c4_Cinematica_JA_reducido.obj
 0001:00011fc0       _mdlSetWorkWidths_c4_Cinematica_JA_reducido 10012fc0 f   c4_Cinematica_JA_reducido.obj
 0001:00012260       _mdlStart_c4_Cinematica_JA_reducido 10013260 f   c4_Cinematica_JA_reducido.obj
 0001:000123e0       _init_dsm_address_info     100133e0 f   c4_Cinematica_JA_reducido.obj
 0001:000123f0       _chart_debug_initialization 100133f0 f   c4_Cinematica_JA_reducido.obj
 0001:000127c0       _init_script_number_translation 100137c0 f   c4_Cinematica_JA_reducido.obj
 0001:000127d0       _c4_sf_marshallOut         100137d0 f   c4_Cinematica_JA_reducido.obj
 0001:000128b0       _c4_sf_marshallIn          100138b0 f   c4_Cinematica_JA_reducido.obj
 0001:00012960       _c4_b_sf_marshallOut       10013960 f   c4_Cinematica_JA_reducido.obj
 0001:000129d0       _sf_opaque_initialize_c4_Cinematica_JA_reducido 100139d0 f   c4_Cinematica_JA_reducido.obj
 0001:00012a00       _initialize_c4_Cinematica_JA_reducido 10013a00 f   c4_Cinematica_JA_reducido.obj
 0001:00012a30       _sf_opaque_enable_c4_Cinematica_JA_reducido 10013a30 f   c4_Cinematica_JA_reducido.obj
 0001:00012a50       _enable_c4_Cinematica_JA_reducido 10013a50 f   c4_Cinematica_JA_reducido.obj
 0001:00012a70       _sf_opaque_disable_c4_Cinematica_JA_reducido 10013a70 f   c4_Cinematica_JA_reducido.obj
 0001:00012a90       _disable_c4_Cinematica_JA_reducido 10013a90 f   c4_Cinematica_JA_reducido.obj
 0001:00012ab0       _sf_opaque_gateway_c4_Cinematica_JA_reducido 10013ab0 f   c4_Cinematica_JA_reducido.obj
 0001:00012ad0       _sf_c4_Cinematica_JA_reducido 10013ad0 f   c4_Cinematica_JA_reducido.obj
 0001:00012de0       _c4_b_sf_marshallIn        10013de0 f   c4_Cinematica_JA_reducido.obj
 0001:00012e60       _c4_c_emlrt_marshallIn     10013e60 f   c4_Cinematica_JA_reducido.obj
 0001:00012eb0       _sf_opaque_get_sim_state_c4_Cinematica_JA_reducido 10013eb0 f   c4_Cinematica_JA_reducido.obj
 0001:00012ed0       _sf_opaque_set_sim_state_c4_Cinematica_JA_reducido 10013ed0 f   c4_Cinematica_JA_reducido.obj
 0001:00012ef0       _sf_opaque_terminate_c4_Cinematica_JA_reducido 10013ef0 f   c4_Cinematica_JA_reducido.obj
 0001:00012f60       _finalize_c4_Cinematica_JA_reducido 10013f60 f   c4_Cinematica_JA_reducido.obj
 0001:00012f70       _sf_opaque_init_subchart_simstructs 10013f70 f   c4_Cinematica_JA_reducido.obj
 0001:00012f90       _initSimStructsc4_Cinematica_JA_reducido 10013f90 f   c4_Cinematica_JA_reducido.obj
 0001:00012fa0       _mdlRTW_c4_Cinematica_JA_reducido 10013fa0 f   c4_Cinematica_JA_reducido.obj
 0001:000134d0       _get_sim_state_c5_Cinematica_JA_reducido 100144d0 f   c5_Cinematica_JA_reducido.obj
 0001:00013620       _sf_get_sim_state_info_c5_Cinematica_JA_reducido 10014620 f   c5_Cinematica_JA_reducido.obj
 0001:000137c0       _set_sim_state_c5_Cinematica_JA_reducido 100147c0 f   c5_Cinematica_JA_reducido.obj
 0001:000138b0       _c5_update_debugger_state_c5_Cinematica_JA_reducido 100148b0 f   c5_Cinematica_JA_reducido.obj
 0001:000138c0       _c5_emlrt_marshallIn       100148c0 f   c5_Cinematica_JA_reducido.obj
 0001:00013910       _c5_b_emlrt_marshallIn     10014910 f   c5_Cinematica_JA_reducido.obj
 0001:000139a0       _c5_e_emlrt_marshallIn     100149a0 f   c5_Cinematica_JA_reducido.obj
 0001:000139f0       _c5_f_emlrt_marshallIn     100149f0 f   c5_Cinematica_JA_reducido.obj
 0001:00013aa0       _mdlProcessParameters_c5_Cinematica_JA_reducido 10014aa0 f   c5_Cinematica_JA_reducido.obj
 0001:00013b40       _initialize_params_c5_Cinematica_JA_reducido 10014b40 f   c5_Cinematica_JA_reducido.obj
 0001:00013b50       _mdlSetWorkWidths_c5_Cinematica_JA_reducido 10014b50 f   c5_Cinematica_JA_reducido.obj
 0001:00013df0       _mdlStart_c5_Cinematica_JA_reducido 10014df0 f   c5_Cinematica_JA_reducido.obj
 0001:00013f70       _init_dsm_address_info     10014f70 f   c5_Cinematica_JA_reducido.obj
 0001:00013f80       _chart_debug_initialization 10014f80 f   c5_Cinematica_JA_reducido.obj
 0001:00014350       _init_script_number_translation 10015350 f   c5_Cinematica_JA_reducido.obj
 0001:00014360       _c5_sf_marshallOut         10015360 f   c5_Cinematica_JA_reducido.obj
 0001:00014440       _c5_sf_marshallIn          10015440 f   c5_Cinematica_JA_reducido.obj
 0001:000144f0       _c5_b_sf_marshallOut       100154f0 f   c5_Cinematica_JA_reducido.obj
 0001:00014560       _sf_opaque_initialize_c5_Cinematica_JA_reducido 10015560 f   c5_Cinematica_JA_reducido.obj
 0001:00014590       _initialize_c5_Cinematica_JA_reducido 10015590 f   c5_Cinematica_JA_reducido.obj
 0001:000145c0       _sf_opaque_enable_c5_Cinematica_JA_reducido 100155c0 f   c5_Cinematica_JA_reducido.obj
 0001:000145e0       _enable_c5_Cinematica_JA_reducido 100155e0 f   c5_Cinematica_JA_reducido.obj
 0001:00014600       _sf_opaque_disable_c5_Cinematica_JA_reducido 10015600 f   c5_Cinematica_JA_reducido.obj
 0001:00014620       _disable_c5_Cinematica_JA_reducido 10015620 f   c5_Cinematica_JA_reducido.obj
 0001:00014640       _sf_opaque_gateway_c5_Cinematica_JA_reducido 10015640 f   c5_Cinematica_JA_reducido.obj
 0001:00014660       _sf_c5_Cinematica_JA_reducido 10015660 f   c5_Cinematica_JA_reducido.obj
 0001:00014970       _c5_b_sf_marshallIn        10015970 f   c5_Cinematica_JA_reducido.obj
 0001:000149f0       _c5_c_emlrt_marshallIn     100159f0 f   c5_Cinematica_JA_reducido.obj
 0001:00014a40       _sf_opaque_get_sim_state_c5_Cinematica_JA_reducido 10015a40 f   c5_Cinematica_JA_reducido.obj
 0001:00014a60       _sf_opaque_set_sim_state_c5_Cinematica_JA_reducido 10015a60 f   c5_Cinematica_JA_reducido.obj
 0001:00014a80       _sf_opaque_terminate_c5_Cinematica_JA_reducido 10015a80 f   c5_Cinematica_JA_reducido.obj
 0001:00014af0       _finalize_c5_Cinematica_JA_reducido 10015af0 f   c5_Cinematica_JA_reducido.obj
 0001:00014b00       _sf_opaque_init_subchart_simstructs 10015b00 f   c5_Cinematica_JA_reducido.obj
 0001:00014b20       _initSimStructsc5_Cinematica_JA_reducido 10015b20 f   c5_Cinematica_JA_reducido.obj
 0001:00014b30       _mdlRTW_c5_Cinematica_JA_reducido 10015b30 f   c5_Cinematica_JA_reducido.obj
 0001:00015060       _get_sim_state_c6_Cinematica_JA_reducido 10016060 f   c6_Cinematica_JA_reducido.obj
 0001:000151b0       _sf_get_sim_state_info_c6_Cinematica_JA_reducido 100161b0 f   c6_Cinematica_JA_reducido.obj
 0001:00015350       _set_sim_state_c6_Cinematica_JA_reducido 10016350 f   c6_Cinematica_JA_reducido.obj
 0001:00015440       _c6_update_debugger_state_c6_Cinematica_JA_reducido 10016440 f   c6_Cinematica_JA_reducido.obj
 0001:00015450       _c6_emlrt_marshallIn       10016450 f   c6_Cinematica_JA_reducido.obj
 0001:000154a0       _c6_b_emlrt_marshallIn     100164a0 f   c6_Cinematica_JA_reducido.obj
 0001:00015530       _c6_e_emlrt_marshallIn     10016530 f   c6_Cinematica_JA_reducido.obj
 0001:00015580       _c6_f_emlrt_marshallIn     10016580 f   c6_Cinematica_JA_reducido.obj
 0001:00015630       _mdlProcessParameters_c6_Cinematica_JA_reducido 10016630 f   c6_Cinematica_JA_reducido.obj
 0001:000156d0       _initialize_params_c6_Cinematica_JA_reducido 100166d0 f   c6_Cinematica_JA_reducido.obj
 0001:000156e0       _mdlSetWorkWidths_c6_Cinematica_JA_reducido 100166e0 f   c6_Cinematica_JA_reducido.obj
 0001:00015980       _mdlStart_c6_Cinematica_JA_reducido 10016980 f   c6_Cinematica_JA_reducido.obj
 0001:00015b00       _init_dsm_address_info     10016b00 f   c6_Cinematica_JA_reducido.obj
 0001:00015b10       _chart_debug_initialization 10016b10 f   c6_Cinematica_JA_reducido.obj
 0001:00015ee0       _init_script_number_translation 10016ee0 f   c6_Cinematica_JA_reducido.obj
 0001:00015ef0       _c6_sf_marshallOut         10016ef0 f   c6_Cinematica_JA_reducido.obj
 0001:00015fd0       _c6_sf_marshallIn          10016fd0 f   c6_Cinematica_JA_reducido.obj
 0001:00016080       _c6_b_sf_marshallOut       10017080 f   c6_Cinematica_JA_reducido.obj
 0001:000160f0       _sf_opaque_initialize_c6_Cinematica_JA_reducido 100170f0 f   c6_Cinematica_JA_reducido.obj
 0001:00016120       _initialize_c6_Cinematica_JA_reducido 10017120 f   c6_Cinematica_JA_reducido.obj
 0001:00016150       _sf_opaque_enable_c6_Cinematica_JA_reducido 10017150 f   c6_Cinematica_JA_reducido.obj
 0001:00016170       _enable_c6_Cinematica_JA_reducido 10017170 f   c6_Cinematica_JA_reducido.obj
 0001:00016190       _sf_opaque_disable_c6_Cinematica_JA_reducido 10017190 f   c6_Cinematica_JA_reducido.obj
 0001:000161b0       _disable_c6_Cinematica_JA_reducido 100171b0 f   c6_Cinematica_JA_reducido.obj
 0001:000161d0       _sf_opaque_gateway_c6_Cinematica_JA_reducido 100171d0 f   c6_Cinematica_JA_reducido.obj
 0001:000161f0       _sf_c6_Cinematica_JA_reducido 100171f0 f   c6_Cinematica_JA_reducido.obj
 0001:00016500       _c6_b_sf_marshallIn        10017500 f   c6_Cinematica_JA_reducido.obj
 0001:00016580       _c6_c_emlrt_marshallIn     10017580 f   c6_Cinematica_JA_reducido.obj
 0001:000165d0       _sf_opaque_get_sim_state_c6_Cinematica_JA_reducido 100175d0 f   c6_Cinematica_JA_reducido.obj
 0001:000165f0       _sf_opaque_set_sim_state_c6_Cinematica_JA_reducido 100175f0 f   c6_Cinematica_JA_reducido.obj
 0001:00016610       _sf_opaque_terminate_c6_Cinematica_JA_reducido 10017610 f   c6_Cinematica_JA_reducido.obj
 0001:00016680       _finalize_c6_Cinematica_JA_reducido 10017680 f   c6_Cinematica_JA_reducido.obj
 0001:00016690       _sf_opaque_init_subchart_simstructs 10017690 f   c6_Cinematica_JA_reducido.obj
 0001:000166b0       _initSimStructsc6_Cinematica_JA_reducido 100176b0 f   c6_Cinematica_JA_reducido.obj
 0001:000166c0       _mdlRTW_c6_Cinematica_JA_reducido 100176c0 f   c6_Cinematica_JA_reducido.obj
 0001:00016bf0       _get_sim_state_c7_Cinematica_JA_reducido 10017bf0 f   c7_Cinematica_JA_reducido.obj
 0001:00016d40       _sf_get_sim_state_info_c7_Cinematica_JA_reducido 10017d40 f   c7_Cinematica_JA_reducido.obj
 0001:00016ee0       _set_sim_state_c7_Cinematica_JA_reducido 10017ee0 f   c7_Cinematica_JA_reducido.obj
 0001:00016fd0       _c7_update_debugger_state_c7_Cinematica_JA_reducido 10017fd0 f   c7_Cinematica_JA_reducido.obj
 0001:00016fe0       _c7_emlrt_marshallIn       10017fe0 f   c7_Cinematica_JA_reducido.obj
 0001:00017030       _c7_b_emlrt_marshallIn     10018030 f   c7_Cinematica_JA_reducido.obj
 0001:000170c0       _c7_e_emlrt_marshallIn     100180c0 f   c7_Cinematica_JA_reducido.obj
 0001:00017110       _c7_f_emlrt_marshallIn     10018110 f   c7_Cinematica_JA_reducido.obj
 0001:000171c0       _mdlProcessParameters_c7_Cinematica_JA_reducido 100181c0 f   c7_Cinematica_JA_reducido.obj
 0001:00017260       _initialize_params_c7_Cinematica_JA_reducido 10018260 f   c7_Cinematica_JA_reducido.obj
 0001:00017270       _mdlSetWorkWidths_c7_Cinematica_JA_reducido 10018270 f   c7_Cinematica_JA_reducido.obj
 0001:00017510       _mdlStart_c7_Cinematica_JA_reducido 10018510 f   c7_Cinematica_JA_reducido.obj
 0001:00017690       _init_dsm_address_info     10018690 f   c7_Cinematica_JA_reducido.obj
 0001:000176a0       _chart_debug_initialization 100186a0 f   c7_Cinematica_JA_reducido.obj
 0001:00017a70       _init_script_number_translation 10018a70 f   c7_Cinematica_JA_reducido.obj
 0001:00017a80       _c7_sf_marshallOut         10018a80 f   c7_Cinematica_JA_reducido.obj
 0001:00017b60       _c7_sf_marshallIn          10018b60 f   c7_Cinematica_JA_reducido.obj
 0001:00017c10       _c7_b_sf_marshallOut       10018c10 f   c7_Cinematica_JA_reducido.obj
 0001:00017c80       _sf_opaque_initialize_c7_Cinematica_JA_reducido 10018c80 f   c7_Cinematica_JA_reducido.obj
 0001:00017cb0       _initialize_c7_Cinematica_JA_reducido 10018cb0 f   c7_Cinematica_JA_reducido.obj
 0001:00017ce0       _sf_opaque_enable_c7_Cinematica_JA_reducido 10018ce0 f   c7_Cinematica_JA_reducido.obj
 0001:00017d00       _enable_c7_Cinematica_JA_reducido 10018d00 f   c7_Cinematica_JA_reducido.obj
 0001:00017d20       _sf_opaque_disable_c7_Cinematica_JA_reducido 10018d20 f   c7_Cinematica_JA_reducido.obj
 0001:00017d40       _disable_c7_Cinematica_JA_reducido 10018d40 f   c7_Cinematica_JA_reducido.obj
 0001:00017d60       _sf_opaque_gateway_c7_Cinematica_JA_reducido 10018d60 f   c7_Cinematica_JA_reducido.obj
 0001:00017d80       _sf_c7_Cinematica_JA_reducido 10018d80 f   c7_Cinematica_JA_reducido.obj
 0001:00018090       _c7_b_sf_marshallIn        10019090 f   c7_Cinematica_JA_reducido.obj
 0001:00018110       _c7_c_emlrt_marshallIn     10019110 f   c7_Cinematica_JA_reducido.obj
 0001:00018160       _sf_opaque_get_sim_state_c7_Cinematica_JA_reducido 10019160 f   c7_Cinematica_JA_reducido.obj
 0001:00018180       _sf_opaque_set_sim_state_c7_Cinematica_JA_reducido 10019180 f   c7_Cinematica_JA_reducido.obj
 0001:000181a0       _sf_opaque_terminate_c7_Cinematica_JA_reducido 100191a0 f   c7_Cinematica_JA_reducido.obj
 0001:00018210       _finalize_c7_Cinematica_JA_reducido 10019210 f   c7_Cinematica_JA_reducido.obj
 0001:00018220       _sf_opaque_init_subchart_simstructs 10019220 f   c7_Cinematica_JA_reducido.obj
 0001:00018240       _initSimStructsc7_Cinematica_JA_reducido 10019240 f   c7_Cinematica_JA_reducido.obj
 0001:00018250       _mdlRTW_c7_Cinematica_JA_reducido 10019250 f   c7_Cinematica_JA_reducido.obj
 0001:00019760       __ssFatalError             1001a760 f   Cinematica_JA_reducido_sfun_registry.obj
 0001:0001bac0       _ProcessMexSfunctionCmdLineCall 1001cac0 f   Cinematica_JA_reducido_sfun_registry.obj
 0001:0001bb90       _mdlGetTimeOfNextVarHit    1001cb90 f   Cinematica_JA_reducido_sfun_registry.obj
 0001:0001bbd0       __ProcessMexSfunctionCmdLineCall 1001cbd0 f   Cinematica_JA_reducido_sfun_registry.obj
 0001:0001c190       __CreateSimStruct          1001d190 f   Cinematica_JA_reducido_sfun_registry.obj
 0001:0001c2c0       __RegNumInputPortsCB       1001d2c0 f   Cinematica_JA_reducido_sfun_registry.obj
 0001:0001c320       __RegNumOutputPortsCB      1001d320 f   Cinematica_JA_reducido_sfun_registry.obj
 0001:0001c3d0       _sf_machine_load_sfunction_ptrs 1001d3d0 f   Cinematica_JA_reducido_sfun_registry.obj
 0001:0001cdb0       _SNPRINTF_WRAPPER          1001ddb0 f   sfc_mexmsvc80:sfc_mex.obj
 0001:0001cdd0       _convert_dims_to_string    1001ddd0 f   sfc_mexmsvc80:sfc_mex.obj
 0001:0001cfa0       _is_real_T_equal_to_double 1001dfa0 f   sfc_mexmsvc80:sfc_mex.obj
 0001:0001cfc0       _is_real32_T_equal_to_double 1001dfc0 f   sfc_mexmsvc80:sfc_mex.obj
 0001:0001cfd0       _is_mxLogical_equal_to_double 1001dfd0 f   sfc_mexmsvc80:sfc_mex.obj
 0001:0001d000       _is_int8_T_equal_to_double 1001e000 f   sfc_mexmsvc80:sfc_mex.obj
 0001:0001d030       _is_uint8_T_equal_to_double 1001e030 f   sfc_mexmsvc80:sfc_mex.obj
 0001:0001d060       _is_int16_T_equal_to_double 1001e060 f   sfc_mexmsvc80:sfc_mex.obj
 0001:0001d090       _is_uint16_T_equal_to_double 1001e090 f   sfc_mexmsvc80:sfc_mex.obj
 0001:0001d0c0       _is_int32_T_equal_to_double 1001e0c0 f   sfc_mexmsvc80:sfc_mex.obj
 0001:0001d0e0       _is_uint32_T_equal_to_double 1001e0e0 f   sfc_mexmsvc80:sfc_mex.obj
 0001:0001d110       _is_char_T_equal_to_double 1001e110 f   sfc_mexmsvc80:sfc_mex.obj
 0001:0001d140       _sf_zero_numeric_value     1001e140 f   sfc_mexmsvc80:sfc_mex.obj
 0001:0001d170       _sf_error_append_debugger_context_if_available 1001e170 f   sfc_mexmsvc80:sfc_mex.obj
 0001:0001d210       _sf_mex_get_error_message_for_write 1001e210 f   sfc_mexmsvc80:sfc_mex.obj
 0001:0001d240       _replace_single_quotes_by_doubled_quotes 1001e240 f   sfc_mexmsvc80:sfc_mex.obj
 0001:0001d450       _sf_mex_get_formatted_error_string 1001e450 f   sfc_mexmsvc80:sfc_mex.obj
 0001:0001d780       _sf_mex_destroy_array      1001e780 f   sfc_mexmsvc80:sfc_mex.obj
 0001:0001d930       _sfrtAddSize               1001e930 f   sfc_mexmsvc80:sfc_mex.obj
 0001:0001d9e0       _sfrtGenSizeString         1001e9e0 f   sfc_mexmsvc80:sfc_mex.obj
 0001:0001da10       _sfIsProperVector          1001ea10 f   sfc_mexmsvc80:sfc_mex.obj
 0001:0001da40       _sfIsRowVector             1001ea40 f   sfc_mexmsvc80:sfc_mex.obj
 0001:0001db50       _sf_ExtractMessageId       1001eb50 f   sfc_mexmsvc80:sfc_mex.obj
 0001:0001dd80       _sf_mex_err                1001ed80 f   sfc_mexmsvc80:sfc_mex.obj
 0001:0001de10       _sf_error_dimension_out_of_bound 1001ee10 f   sfc_mexmsvc80:sfc_mex.obj
 0001:0001deb0       _sf_mex_check_and_set_actual_dimensions 1001eeb0 f   sfc_mexmsvc80:sfc_mex.obj
 0001:0001e020       _sf_mex_check_complex      1001f020 f   sfc_mexmsvc80:sfc_mex.obj
 0001:0001e090       _sf_mex_check_sparse       1001f090 f   sfc_mexmsvc80:sfc_mex.obj
 0001:0001e0d0       _sf_mex_check_numerictype  1001f0d0 f   sfc_mexmsvc80:sfc_mex.obj
 0001:0001e160       _sf_mex_check_fimath       1001f160 f   sfc_mexmsvc80:sfc_mex.obj
 0001:0001e7f0       _size_mismatch_error       1001f7f0 f   sfc_mexmsvc80:sfc_mex.obj
 0001:0001f020       _check_array_dimensions    10020020 f   sfc_mexmsvc80:sfc_mex.obj
 0001:0001f070       _check_input_mxarray       10020070 f   sfc_mexmsvc80:sfc_mex.obj
 0001:0001f710       _sf_numeric_value_to_double 10020710 f   sfc_mexmsvc80:sfc_mex.obj
 0001:0001f750       _ml_generic_out_of_bounds_check 10020750 f   sfc_mexmsvc80:sfc_mex.obj
 0001:0001f8e0       _ml_get_element_value_from_array 100208e0 f   sfc_mexmsvc80:sfc_mex.obj
 0001:0001fdb0       __ml_generic_castability_check 10020db0 f   sfc_mexmsvc80:sfc_mex.obj
 0001:00020640       _ml_generic_castability_check 10021640 f   sfc_mexmsvc80:sfc_mex.obj
 0001:000206a0       _ml_check_mx_array_for_single_castability 100216a0 f   sfc_mexmsvc80:sfc_mex.obj
 0001:00020710       _ml_check_mx_array_for_logical_castability 10021710 f   sfc_mexmsvc80:sfc_mex.obj
 0001:00020770       _ml_check_mx_array_for_int8_castability 10021770 f   sfc_mexmsvc80:sfc_mex.obj
 0001:00020800       _ml_check_mx_array_for_uint8_castability 10021800 f   sfc_mexmsvc80:sfc_mex.obj
 0001:00020870       _ml_check_mx_array_for_int16_castability 10021870 f   sfc_mexmsvc80:sfc_mex.obj
 0001:000208e0       _ml_check_mx_array_for_uint16_castability 100218e0 f   sfc_mexmsvc80:sfc_mex.obj
 0001:00020950       _ml_check_mx_array_for_int32_castability 10021950 f   sfc_mexmsvc80:sfc_mex.obj
 0001:000209c0       _ml_check_mx_array_for_uint32_castability 100219c0 f   sfc_mexmsvc80:sfc_mex.obj
 0001:00020a30       _ml_check_mx_array_for_castability 10021a30 f   sfc_mexmsvc80:sfc_mex.obj
 0001:000210b0       _set_data_value            100220b0 f   sfc_mexmsvc80:sfc_mex.obj
 0001:00021580       _get_data_value            10022580 f   sfc_mexmsvc80:sfc_mex.obj
 0001:00021680       _get_next_element_address  10022680 f   sfc_mexmsvc80:sfc_mex.obj
 0001:00021720       _sf_normalize_index        10022720 f   sfc_mexmsvc80:sfc_mex.obj
 0001:000219b0       _ml_array_index_bound_check 100229b0 f   sfc_mexmsvc80:sfc_mex.obj
 0001:00022290       _mx_value                  10023290 f   sfc_mexmsvc80:sfc_mex.obj
 0001:000222e0       _sf_create_numeric_array   100232e0 f   sfc_mexmsvc80:sfc_mex.obj
 0001:00022360       _sf_mex_assign_to_mx_array 10023360 f   sfc_mexmsvc80:sfc_mex.obj
 0001:000225c0       _assign_from_mx_array      100235c0 f   sfc_mexmsvc80:sfc_mex.obj
 0001:00022d80       _sf_mex_import_v           10023d80 f   sfc_mexmsvc80:sfc_mex.obj
 0001:00023110       _get_machine_and_chart_file_number 10024110 f   sfc_mexmsvc80:sfc_sf.obj
 0001:000231d0       _get_sfun_block_specialization 100241d0 f   sfc_mexmsvc80:sfc_sf.obj
 0001:00023230       _call_sf_machine_global_method_dispatcher 10024230 f   sfc_mexmsvc80:sfc_sf.obj
 0001:000233e0       _mdl_zeroCrossings_processing 100243e0 f   sfc_mexmsvc80:sfc_sf.obj
 0001:00023490       _mdl_derivatives_processing 10024490 f   sfc_mexmsvc80:sfc_sf.obj
 0001:00023710       _mdl_outputs_continuous_legacy 10024710 f   sfc_mexmsvc80:sfc_sf.obj
 0001:00023790       _mdl_outputs_processing    10024790 f   sfc_mexmsvc80:sfc_sf.obj
 0001:000239d0       _mdl_enable_processing     100249d0 f   sfc_mexmsvc80:sfc_sf.obj
 0001:00023a80       _mdl_disable_processing    10024a80 f   sfc_mexmsvc80:sfc_sf.obj
 0001:00024150       _write_symbol_mapping      10025150 f   sfc_mexmsvc80:sfc_sf.obj
 0001:00024780       _sf_call_output_fcn_enable_disable 10025780 f   sfc_mexmsvc80:sfc_sf.obj
 0001:000249a0       _set_dwork_information_from_mx_array 100259a0 f   sfc_mexmsvc80:sfc_sf.obj
 0001:000252a0       _ptr2mxStruct              100262a0 f   sfc_mexmsvc80:sfc_sf.obj
 0001:000254c0       _SNPRINTF_WRAPPER          100264c0 f   sfc_debugmsvc80:sfcdebug.obj
 0001:000254e0       _sf_debug_chart_instance_initialized_quick 100264e0 f   sfc_debugmsvc80:sfcdebug.obj
 0001:000254f0       _sf_debug_chart_instance_initialized 100264f0 f   sfc_debugmsvc80:sfcdebug.obj
 0001:00025670       _sfrtAddSize               10026670 f   sfc_debugmsvc80:sfcdebug.obj
 0001:00025720       _sfrtGenSizeString         10026720 f   sfc_debugmsvc80:sfcdebug.obj
 0001:00025ba0       _sf_debug_sim_status_listener 10026ba0 f   sfc_debugmsvc80:sfcdebug.obj
 0001:00026010       _sf_debug_form_mask_bits   10027010 f   sfc_debugmsvc80:sfcdebug.obj
 0001:00026050       _sf_debug_form_sf_data_type_offsets 10027050 f   sfc_debugmsvc80:sfcdebug.obj
 0001:000260e0       _sf_debug_free_all         100270e0 f   sfc_debugmsvc80:sfcdebug.obj
 0001:00026260       _sf_debug_append_debugger_context 10027260 f   sfc_debugmsvc80:sfcdebug.obj
 0001:00026540       _local_strdup              10027540 f   sfc_debugmsvc80:sfcdebug.obj
 0001:000271a0       _sf_debug_em_terminate     100281a0 f   sfc_debugmsvc80:sfcdebug.obj
 0001:000271e0       _sf_debug_push_eml_function 100281e0 f   sfc_debugmsvc80:sfcdebug.obj
 0001:00027270       _sf_debug_pop_eml_function 10028270 f   sfc_debugmsvc80:sfcdebug.obj
 0001:00027b50       _sf_debug_get_machine_number_from_id_or_name 10028b50 f   sfc_debugmsvc80:sfcdebug.obj
 0001:00027cb0       _sf_debug_get_chart_number_from_id 10028cb0 f   sfc_debugmsvc80:sfcdebug.obj
 0001:000285d0       _sf_debug_transfer_control_to_debugger_GUI 100295d0 f   sfc_debugmsvc80:sfcdebug.obj
 0001:00029340       _sf_debug_scripts_rehash   1002a340 f   sfc_debugmsvc80:sfcdebug.obj
 0001:000294f0       _sf_debug_get_script_line_count 1002a4f0 f   sfc_debugmsvc80:sfcdebug.obj
 0001:00029990       _cv_eml_state_cvId         1002a990 f   sfc_debugmsvc80:sfcdebug.obj
 0001:0002a650       _sf_debug_data_array_bounds_error 1002b650 f   sfc_debugmsvc80:sfcdebug.obj
 0001:0002a960       _eml_debug_runtime_error_doclink 1002b960 f   sfc_debugmsvc80:sfcdebug.obj
 0001:0002aaa0       _sf_debug_runtime_error    1002baa0 f   sfc_debugmsvc80:sfcdebug.obj
 0001:0002aaf0       _sf_debug_matlab_error     1002baf0 f   sfc_debugmsvc80:sfcdebug.obj
 0001:0002b000       _sf_debug_data_value_error 1002c000 f   sfc_debugmsvc80:sfcdebug.obj
 0001:0002b600       _sf_debug_data_loss_error  1002c600 f   sfc_debugmsvc80:sfcdebug.obj
 0001:0002bec0       _call_cv_range_check       1002cec0 f   sfc_debugmsvc80:sfcdebug.obj
 0001:0002c430       _sf_debug_invoke_cycle_detection_code 1002d430 f   sfc_debugmsvc80:sfcdebug.obj
 0001:0002cdf0       _sf_reset_debug_info_struct 1002ddf0 f   sfc_debugmsvc80:sfcdebug.obj
 0001:0002d4c0       _cv_script_cvId            1002e4c0 f   sfc_debugmsvc80:sfcdebug.obj
 0001:0002dcb0       _sfc_api_chart_visible     1002ecb0 f   sfc_debugmsvc80:sfc_api.obj
 0001:0002dd60       _sfc_api_active_instance   1002ed60 f   sfc_debugmsvc80:sfc_api.obj
 0001:0002de00       _sfc_api_machine_load      1002ee00 f   sfc_debugmsvc80:sfc_api.obj
 0001:0002df00       _sfc_api_debugger_alive    1002ef00 f   sfc_debugmsvc80:sfc_api.obj
 0001:0002df10       _sfc_api_go                1002ef10 f   sfc_debugmsvc80:sfc_api.obj
 0001:0002df20       _sfc_api_step_over         1002ef20 f   sfc_debugmsvc80:sfc_api.obj
 0001:0002df30       _sfc_api_step_out          1002ef30 f   sfc_debugmsvc80:sfc_api.obj
 0001:0002df40       _sfc_api_resume            1002ef40 f   sfc_debugmsvc80:sfc_api.obj
 0001:0002df50       _sfc_api_break             1002ef50 f   sfc_debugmsvc80:sfc_api.obj
 0001:0002df60       _sfc_api_stop_debugging    1002ef60 f   sfc_debugmsvc80:sfc_api.obj
 0001:0002dfb0       _sfc_api_is_cycle_detected 1002efb0 f   sfc_debugmsvc80:sfc_api.obj
 0001:0002e000       _sfc_api_is_array_bounds_detected 1002f000 f   sfc_debugmsvc80:sfc_api.obj
 0001:0002e050       _sfc_api_set_disable_all_breakpoints 1002f050 f   sfc_debugmsvc80:sfc_api.obj
 0001:0002e0e0       _sfc_api_disable_all_breakpoints_and_go 1002f0e0 f   sfc_debugmsvc80:sfc_api.obj
 0001:0002e0f0       _sfc_api_close             1002f0f0 f   sfc_debugmsvc80:sfc_api.obj
 0001:0002e100       _sfc_api_browse_data       1002f100 f   sfc_debugmsvc80:sfc_api.obj
 0001:0002e180       _sfc_api_watch_data        1002f180 f   sfc_debugmsvc80:sfc_api.obj
 0001:0002e200       _sfc_api_assign_data       1002f200 f   sfc_debugmsvc80:sfc_api.obj
 0001:0002e280       _sfc_api_whos              1002f280 f   sfc_debugmsvc80:sfc_api.obj
 0001:0002e310       _sfc_api_get_consistency_info 1002f310 f   sfc_debugmsvc80:sfc_api.obj
 0001:0002e330       _sfc_api_browse_trace      1002f330 f   sfc_debugmsvc80:sfc_api.obj
 0001:0002e350       _sfc_api_break_on_chart_entry 1002f350 f   sfc_debugmsvc80:sfc_api.obj
 0001:0002e390       _sfc_api_break_on_event_broadcast 1002f390 f   sfc_debugmsvc80:sfc_api.obj
 0001:0002e3d0       _sfc_api_break_on_state_entry 1002f3d0 f   sfc_debugmsvc80:sfc_api.obj
 0001:0002e410       _sfc_api_set_watch         1002f410 f   sfc_debugmsvc80:sfc_api.obj
 0001:0002e4f0       _sfc_api_set_breakpoints   1002f4f0 f   sfc_debugmsvc80:sfc_api.obj
 0001:0002e5d0       _sfc_api_set_eml_breakpoints 1002f5d0 f   sfc_debugmsvc80:sfc_api.obj
 0001:0002e680       _sfc_api_set_script_breakpoints 1002f680 f   sfc_debugmsvc80:sfc_api.obj
 0001:0002e6e0       _sfc_api_add_script_breakpoints 1002f6e0 f   sfc_debugmsvc80:sfc_api.obj
 0001:0002e740       _sfc_api_clear_script_breakpoints 1002f740 f   sfc_debugmsvc80:sfc_api.obj
 0001:0002e7a0       _sfc_api_query_script_breakpoints 1002f7a0 f   sfc_debugmsvc80:sfc_api.obj
 0001:0002e810       _sfc_api_get_script_id     1002f810 f   sfc_debugmsvc80:sfc_api.obj
 0001:0002e8b0       _sfc_api_get_active_states 1002f8b0 f   sfc_debugmsvc80:sfc_api.obj
 0001:0002e920       _sfc_api_break_between_times 1002f920 f   sfc_debugmsvc80:sfc_api.obj
 0001:0002e980       _sfc_api_get_instance_handle 1002f980 f   sfc_debugmsvc80:sfc_api.obj
 0001:0002ea60       _sfc_api_get_coverage      1002fa60 f   sfc_debugmsvc80:sfc_api.obj
 0001:0002ead0       _sfc_api_set_animation     1002fad0 f   sfc_debugmsvc80:sfc_api.obj
 0001:0002eb30       _sfc_api_select_chart      1002fb30 f   sfc_debugmsvc80:sfc_api.obj
 0001:0002ebc0       _sfc_api_select_charts     1002fbc0 f   sfc_debugmsvc80:sfc_api.obj
 0001:0002ebf0       _sfc_api_cycle_detection_check 1002fbf0 f   sfc_debugmsvc80:sfc_api.obj
 0001:0002ec50       _sfc_api_data_range_check  1002fc50 f   sfc_debugmsvc80:sfc_api.obj
 0001:0002ecb0       _sfc_api_transition_conflict_check 1002fcb0 f   sfc_debugmsvc80:sfc_api.obj
 0001:0002ed10       _sfc_api_state_consistency_check 1002fd10 f   sfc_debugmsvc80:sfc_api.obj
 0001:0002ed70       _sfc_api_set_instance_cv_ids 1002fd70 f   sfc_debugmsvc80:sfc_api.obj
 0001:0002eea0       _sfc_api_set_script_cv_ids 1002fea0 f   sfc_debugmsvc80:sfc_api.obj
 0001:0002ef40       _sfc_api_get_current_machine_id 1002ff40 f   sfc_debugmsvc80:sfc_api.obj
 0001:0002ef70       _sfc_api_get_current_machine_number 1002ff70 f   sfc_debugmsvc80:sfc_api.obj
 0001:0002efa0       _sfc_api_get_current_chart_number 1002ffa0 f   sfc_debugmsvc80:sfc_api.obj
 0001:0002efd0       _sfc_api_get_current_instance_number 1002ffd0 f   sfc_debugmsvc80:sfc_api.obj
 0001:0002f000       _sfc_api_get_current_instance_handle 10030000 f   sfc_debugmsvc80:sfc_api.obj
 0001:0002f020       _sfc_api_get_current_is_minor_time_step 10030020 f   sfc_debugmsvc80:sfc_api.obj
 0001:0002f050       _sfc_api_get_current_machine_name 10030050 f   sfc_debugmsvc80:sfc_api.obj
 0001:0002f070       _sfc_api_get_current_chart_id 10030070 f   sfc_debugmsvc80:sfc_api.obj
 0001:0002f0a0       _sfc_api_get_current_object_type 100300a0 f   sfc_debugmsvc80:sfc_api.obj
 0001:0002f0d0       _sfc_api_get_current_event_type 100300d0 f   sfc_debugmsvc80:sfc_api.obj
 0001:0002f100       _sfc_api_get_current_object_id 10030100 f   sfc_debugmsvc80:sfc_api.obj
 0001:0002f130       _sfc_get_current_active_event_type 10030130 f   sfc_debugmsvc80:sfc_api.obj
 0001:0002f160       _sfc_api_get_current_active_event_id 10030160 f   sfc_debugmsvc80:sfc_api.obj
 0001:0002f190       _sfc_api_get_current_simulation_time 10030190 f   sfc_debugmsvc80:sfc_api.obj
 0001:0002f1b0       _sfc_get_current_tag_type  100301b0 f   sfc_debugmsvc80:sfc_api.obj
 0001:0002f1e0       _sfc_get_current_coverage_percentage 100301e0 f   sfc_debugmsvc80:sfc_api.obj
 0001:0002f200       _sfc_get_current_statement_context 10030200 f   sfc_debugmsvc80:sfc_api.obj
 0001:0002f220       _sfc_get_current_optional_integer 10030220 f   sfc_debugmsvc80:sfc_api.obj
 0001:0002f250       _sfc_get_current_statement_info 10030250 f   sfc_debugmsvc80:sfc_api.obj
 0001:0002f2f0       _sfc_api_get               100302f0 f   sfc_debugmsvc80:sfc_api.obj
 0001:0002f3f0       _sf_debug_sm_is_using_unified_editors 100303f0 f   sfc_debugmsvc80:sfdb_animation.obj
 0001:0002f470       _sf_debug_sm_is_chart_visible_in_unified_editors 10030470 f   sfc_debugmsvc80:sfdb_animation.obj
 0001:0002f510       _sf_debug_sm_check_if_chart_is_visible 10030510 f   sfc_debugmsvc80:sfdb_animation.obj
 0001:0002fe30       _sf_debug_sm_fill_state_activity_data 10030e30 f   sfc_debugmsvc80:sfdb_animation.obj
 0001:00031da0       _sf_debug_hm_get_simulink_handle 10032da0 f   sfc_debugmsvc80:sfdb_handle_management.obj
 0001:00032760       _sf_debug_hm_initialize_globals 10033760 f   sfc_debugmsvc80:sfdb_handle_management.obj
 0001:00032850       _sf_debug_hm_get_machine_debug_flag 10033850 f   sfc_debugmsvc80:sfdb_handle_management.obj
 0001:000329a0       _sf_debug_hm_get_machine_id 100339a0 f   sfc_debugmsvc80:sfdb_handle_management.obj
 0001:00032ab0       _sf_debug_hm_get_chart_id  10033ab0 f   sfc_debugmsvc80:sfdb_handle_management.obj
 0001:00032c20       _sf_debug_hm_register_executing_SFunction 10033c20 f   sfc_debugmsvc80:sfdb_handle_management.obj
 0001:00032d70       _sf_debug_hm_get_chart_active_instance 10033d70 f   sfc_debugmsvc80:sfdb_handle_management.obj
 0001:00032ea0       _sf_debug_hm_get_chart_visibility 10033ea0 f   sfc_debugmsvc80:sfdb_handle_management.obj
 0001:00032ff0       _sf_debug_hm_form_object_boolean_properties 10033ff0 f   sfc_debugmsvc80:sfdb_handle_management.obj
 0001:00033260       _sf_debug_hm_form_object_properties 10034260 f   sfc_debugmsvc80:sfdb_handle_management.obj
 0001:00033460       _sf_debug_hm_terminate_charts 10034460 f   sfc_debugmsvc80:sfdb_handle_management.obj
 0001:00033a70       _sf_debug_hm_terminate_machines 10034a70 f   sfc_debugmsvc80:sfdb_handle_management.obj
 0001:00035040       _void_ptr_stack_vector_free_total 10036040 f   sfc_debugmsvc80:sfdb_data_browse.obj
 0001:000350a0       _sf_debug_st_terminate_machine 100360a0 f   sfc_debugmsvc80:sfdb_data_browse.obj
 0001:000350d0       _sf_debug_st_terminate_instance 100360d0 f   sfc_debugmsvc80:sfdb_data_browse.obj
 0001:00035250       _push_on_to_void_ptr_stack 10036250 f   sfc_debugmsvc80:sfdb_data_browse.obj
 0001:00035380       _pop_from_void_ptr_stack   10036380 f   sfc_debugmsvc80:sfdb_data_browse.obj
 0001:00035480       _sf_debug_st_get_data_value 10036480 f   sfc_debugmsvc80:sfdb_data_browse.obj
 0001:00035920       _mx_value                  10036920 f   sfc_debugmsvc80:sfdb_data_browse.obj
 0001:00035950       _sf_debug_st_fill_data_struct 10036950 f   sfc_debugmsvc80:sfdb_data_browse.obj
 0001:00035c20       _data_type_format_strings  10036c20 f   sfc_debugmsvc80:sfdb_data_browse.obj
 0001:00035c90       _sf_debug_st_fill_data     10036c90 f   sfc_debugmsvc80:sfdb_data_browse.obj
 0001:00036a50       _sf_debug_ss_copy_dimension 10037a50 f   sfc_debugmsvc80:sfdb_symbol_scope.obj
 0001:00036ac0       _sf_debug_ss_get_number_elements 10037ac0 f   sfc_debugmsvc80:sfdb_symbol_scope.obj
 0001:00036ae0       _sf_debug_ss_fill_data_struct 10037ae0 f   sfc_debugmsvc80:sfdb_symbol_scope.obj
 0001:00036cd0       _sf_debug_ss_reset_data_info 10037cd0 f   sfc_debugmsvc80:sfdb_symbol_scope.obj
 0001:00036d20       _sf_debug_fill_data_info_by_symbol_scope_entry 10037d20 f   sfc_debugmsvc80:sfdb_symbol_scope.obj
 0001:00036dd0       _sf_debug_fill_data_info_by_data_vector 10037dd0 f   sfc_debugmsvc80:sfdb_symbol_scope.obj
 0001:00036f90       _sf_debug_ss_get_data_info 10037f90 f   sfc_debugmsvc80:sfdb_symbol_scope.obj
 0001:000371d0       _sf_debug_select_mex_function 100381d0 f   sfc_debugmsvc80:sfdb_symbol_scope.obj
 0001:00037200       _sf_debug_is_dyn_matrix_initialized 10038200 f   sfc_debugmsvc80:sfdb_symbol_scope.obj
 0001:00037220       _sf_debug_ss_set_data_value_try 10038220 f   sfc_debugmsvc80:sfdb_symbol_scope.obj
 0001:00037350       _sf_debug_ss_get_data_value 10038350 f   sfc_debugmsvc80:sfdb_symbol_scope.obj
 0001:00037730       _sf_debug_ss_data_bytes_string 10038730 f   sfc_debugmsvc80:sfdb_symbol_scope.obj
 0001:000377a0       _sf_debug_ss_data_class_string 100387a0 f   sfc_debugmsvc80:sfdb_symbol_scope.obj
 0001:00037af0       _sf_debug_ss_data_size_string 10038af0 f   sfc_debugmsvc80:sfdb_symbol_scope.obj
 0001:00037bb0       _sf_debug_ss_data_create_data_info_struct 10038bb0 f   sfc_debugmsvc80:sfdb_symbol_scope.obj
 0001:00037e10       _sf_debug_ss_data_create_name_value_pair 10038e10 f   sfc_debugmsvc80:sfdb_symbol_scope.obj
 0001:00037e70       _sf_debug_ss_data_get_whos_info 10038e70 f   sfc_debugmsvc80:sfdb_symbol_scope.obj
 0001:00037ea0       _same_named_data_in_data_array 10038ea0 f   sfc_debugmsvc80:sfdb_symbol_scope.obj
 0001:000393c0       _sf_debug_cc_terminate_chart 1003a3c0 f   sfc_debugmsvc80:sfdb_coverage.obj
 0001:000396a0       _sf_debug_cc_terminate_instance 1003a6a0 f   sfc_debugmsvc80:sfdb_coverage.obj
 0001:0003a0b0       _sf_debug_cc_mark_object_if_needed 1003b0b0 f   sfc_debugmsvc80:sfdb_coverage.obj
 0001:0003a400       _sf_debug_cc_fill_transition_coverage_data 1003b400 f   sfc_debugmsvc80:sfdb_coverage.obj
 0001:0003a530       _sf_debug_cc_fill_transition_coverage_map 1003b530 f   sfc_debugmsvc80:sfdb_coverage.obj
 0001:0003a710       _sf_debug_cc_fill_state_coverage_map 1003b710 f   sfc_debugmsvc80:sfdb_coverage.obj
 0001:0003a8b0       _sf_debug_cc_fill_state_coverage_data 1003b8b0 f   sfc_debugmsvc80:sfdb_coverage.obj
 0001:0003b260       _sf_debug_bm_initialize_eml 1003c260 f   sfc_debugmsvc80:sfdb_breakpoints.obj
 0001:0003c240       _sf_debug_bm_map_debug_tag_to_breakpoint_tag 1003d240 f   sfc_debugmsvc80:sfdb_breakpoints.obj
 0001:0003c2e0       _sf_debug_bm_is_a_eml_breakpoint_impl 1003d2e0 f   sfc_debugmsvc80:sfdb_breakpoints.obj
 0001:0003d880       _sf_debug_sc_push_on_error_stack 1003e880 f   sfc_debugmsvc80:sfdb_state_consistency.obj
 0001:0003d990       _sf_debug_sc_reset_error_stack 1003e990 f   sfc_debugmsvc80:sfdb_state_consistency.obj
 0001:0003dae0       _sf_debug_sc_is_state_inconsistent 1003eae0 f   sfc_debugmsvc80:sfdb_state_consistency.obj
 0001:0003dd00       _sf_debug_sc_fill_consistency_info 1003ed00 f   sfc_debugmsvc80:sfdb_state_consistency.obj
 0001:0003e180       _void_assertion_fcn        1003f180 f   sfc_debugmsvc80:sfdb_call_stack.obj
 0001:0003e670       _sf_debug_tm_fill_local_trace 1003f670 f   sfc_debugmsvc80:sfdb_call_stack.obj
 0001:0003eaf0       _sf_debug_cd_terminate_instance 1003faf0 f   sfc_debugmsvc80:sfdb_cycle_detection.obj
 0001:0003eb50       _sf_debug_cd_free_checksum_stack 1003fb50 f   sfc_debugmsvc80:sfdb_cycle_detection.obj
 0001:0003eb80       _sf_debug_cd_reset_pack_strings 1003fb80 f   sfc_debugmsvc80:sfdb_cycle_detection.obj
 0001:0003f1d0       _md5file_clear             100401d0 f   sfc_debugmsvc80:ckmd5.obj
 0001:0003f200       _Encode                    10040200 f   sfc_debugmsvc80:ckmd5.obj
 0001:0003f240       _Decode                    10040240 f   sfc_debugmsvc80:ckmd5.obj
 0001:0003f2c0       _MD5Transform              100402c0 f   sfc_debugmsvc80:ckmd5.obj
 0001:0003f980       _md5file_addn              10040980 f   sfc_debugmsvc80:ckmd5.obj
 0001:0003fa30       _md5file_hash              10040a30 f   sfc_debugmsvc80:ckmd5.obj
 0001:0003ff2b       _pre_c_init                10040f2b f   MSVCRT:crtdll.obj
 0001:00040183       ___DllMainCRTStartup       10041183 f   MSVCRT:crtdll.obj
